
Sensor_D11.elf:     file format elf32-littlearm

Sections:
Idx Name          Size      VMA       LMA       File off  Algn
  0 .text         00001b50  00000800  00000800  00000800  2**2
                  CONTENTS, ALLOC, LOAD, READONLY, CODE
  1 .relocate     0000006c  20000000  00002350  00010000  2**2
                  CONTENTS, ALLOC, LOAD, DATA
  2 .bss          000003d8  2000006c  000023bc  0001006c  2**2
                  ALLOC
  3 .stack        00000404  20000444  00002794  0001006c  2**0
                  ALLOC
  4 .ARM.attributes 00000028  00000000  00000000  0001006c  2**0
                  CONTENTS, READONLY
  5 .comment      000000cc  00000000  00000000  00010094  2**0
                  CONTENTS, READONLY
  6 .debug_info   00019c93  00000000  00000000  00010160  2**0
                  CONTENTS, READONLY, DEBUGGING, OCTETS
  7 .debug_abbrev 0000309f  00000000  00000000  00029df3  2**0
                  CONTENTS, READONLY, DEBUGGING, OCTETS
  8 .debug_loclists 000004d6  00000000  00000000  0002ce92  2**0
                  CONTENTS, READONLY, DEBUGGING, OCTETS
  9 .debug_aranges 000004c8  00000000  00000000  0002d368  2**3
                  CONTENTS, READONLY, DEBUGGING, OCTETS
 10 .debug_rnglists 0000009d  00000000  00000000  0002d830  2**0
                  CONTENTS, READONLY, DEBUGGING, OCTETS
 11 .debug_macro  00012c3a  00000000  00000000  0002d8cd  2**0
                  CONTENTS, READONLY, DEBUGGING, OCTETS
 12 .debug_line   000083ac  00000000  00000000  00040507  2**0
                  CONTENTS, READONLY, DEBUGGING, OCTETS
 13 .debug_str    0006527a  00000000  00000000  000488b3  2**0
                  CONTENTS, READONLY, DEBUGGING, OCTETS
 14 .debug_frame  00000994  00000000  00000000  000adb30  2**2
                  CONTENTS, READONLY, DEBUGGING, OCTETS
 15 .debug_loc    00001990  00000000  00000000  000ae4c4  2**0
                  CONTENTS, READONLY, DEBUGGING, OCTETS
 16 .debug_ranges 00000378  00000000  00000000  000afe54  2**0
                  CONTENTS, READONLY, DEBUGGING, OCTETS
 17 .debug_line_str 00000072  00000000  00000000  000b01cc  2**0
                  CONTENTS, READONLY, DEBUGGING, OCTETS

Disassembly of section .text:

00000800 <exception_table>:
     800:	48 08 00 20 d9 1f 00 00 95 0e 00 00 91 0e 00 00     H.. ............
	...
     82c:	d5 1f 00 00 00 00 00 00 00 00 00 00 d5 1f 00 00     ................
     83c:	51 0d 00 00 d5 1f 00 00 d5 1f 00 00 d5 1f 00 00     Q...............
     84c:	d5 1f 00 00 d5 1f 00 00 d5 1f 00 00 d5 1f 00 00     ................
     85c:	ad 1e 00 00 d5 1f 00 00 d5 1f 00 00 69 10 00 00     ............i...
     86c:	d5 1f 00 00 d5 1f 00 00 d5 1f 00 00 d5 1f 00 00     ................
     87c:	d5 1f 00 00 d5 1f 00 00 d5 1f 00 00 d5 1f 00 00     ................

0000088c <deregister_tm_clones>:
     88c:	4804      	ldr	r0, [pc, #16]	; (8a0 <deregister_tm_clones+0x14>)
     88e:	4b05      	ldr	r3, [pc, #20]	; (8a4 <deregister_tm_clones+0x18>)
     890:	b510      	push	{r4, lr}
     892:	4283      	cmp	r3, r0
     894:	d003      	beq.n	89e <deregister_tm_clones+0x12>
     896:	4b04      	ldr	r3, [pc, #16]	; (8a8 <deregister_tm_clones+0x1c>)
     898:	2b00      	cmp	r3, #0
     89a:	d000      	beq.n	89e <deregister_tm_clones+0x12>
     89c:	4798      	blx	r3
     89e:	bd10      	pop	{r4, pc}
     8a0:	00002350 	.word	0x00002350
     8a4:	00002350 	.word	0x00002350
     8a8:	00000000 	.word	0x00000000

000008ac <register_tm_clones>:
     8ac:	4806      	ldr	r0, [pc, #24]	; (8c8 <register_tm_clones+0x1c>)
     8ae:	4907      	ldr	r1, [pc, #28]	; (8cc <register_tm_clones+0x20>)
     8b0:	1a09      	subs	r1, r1, r0
     8b2:	108b      	asrs	r3, r1, #2
     8b4:	0fc9      	lsrs	r1, r1, #31
     8b6:	18c9      	adds	r1, r1, r3
     8b8:	b510      	push	{r4, lr}
     8ba:	1049      	asrs	r1, r1, #1
     8bc:	d003      	beq.n	8c6 <register_tm_clones+0x1a>
     8be:	4b04      	ldr	r3, [pc, #16]	; (8d0 <register_tm_clones+0x24>)
     8c0:	2b00      	cmp	r3, #0
     8c2:	d000      	beq.n	8c6 <register_tm_clones+0x1a>
     8c4:	4798      	blx	r3
     8c6:	bd10      	pop	{r4, pc}
     8c8:	00002350 	.word	0x00002350
     8cc:	00002350 	.word	0x00002350
     8d0:	00000000 	.word	0x00000000

000008d4 <__do_global_dtors_aux>:
     8d4:	b510      	push	{r4, lr}
     8d6:	4c07      	ldr	r4, [pc, #28]	; (8f4 <__do_global_dtors_aux+0x20>)
     8d8:	7823      	ldrb	r3, [r4, #0]
     8da:	2b00      	cmp	r3, #0
     8dc:	d109      	bne.n	8f2 <__do_global_dtors_aux+0x1e>
     8de:	f7ff ffd5 	bl	88c <deregister_tm_clones>
     8e2:	4b05      	ldr	r3, [pc, #20]	; (8f8 <__do_global_dtors_aux+0x24>)
     8e4:	2b00      	cmp	r3, #0
     8e6:	d002      	beq.n	8ee <__do_global_dtors_aux+0x1a>
     8e8:	4804      	ldr	r0, [pc, #16]	; (8fc <__do_global_dtors_aux+0x28>)
     8ea:	e000      	b.n	8ee <__do_global_dtors_aux+0x1a>
     8ec:	bf00      	nop
     8ee:	2301      	movs	r3, #1
     8f0:	7023      	strb	r3, [r4, #0]
     8f2:	bd10      	pop	{r4, pc}
     8f4:	2000006c 	.word	0x2000006c
     8f8:	00000000 	.word	0x00000000
     8fc:	00002350 	.word	0x00002350

00000900 <frame_dummy>:
     900:	4b05      	ldr	r3, [pc, #20]	; (918 <frame_dummy+0x18>)
     902:	b510      	push	{r4, lr}
     904:	2b00      	cmp	r3, #0
     906:	d003      	beq.n	910 <frame_dummy+0x10>
     908:	4904      	ldr	r1, [pc, #16]	; (91c <frame_dummy+0x1c>)
     90a:	4805      	ldr	r0, [pc, #20]	; (920 <frame_dummy+0x20>)
     90c:	e000      	b.n	910 <frame_dummy+0x10>
     90e:	bf00      	nop
     910:	f7ff ffcc 	bl	8ac <register_tm_clones>
     914:	bd10      	pop	{r4, pc}
     916:	46c0      	nop			; (mov r8, r8)
     918:	00000000 	.word	0x00000000
     91c:	20000070 	.word	0x20000070
     920:	00002350 	.word	0x00002350

00000924 <multi3>:

/*
Returns the lower 64bits of product of two 64bit unsigned integers
*/
static uint64_t multi3(uint64_t x, uint64_t y)
{
     924:	b5f0      	push	{r4, r5, r6, r7, lr}
     926:	46de      	mov	lr, fp
     928:	4657      	mov	r7, sl
     92a:	464e      	mov	r6, r9
     92c:	4645      	mov	r5, r8
     92e:	b5e0      	push	{r5, r6, r7, lr}
     930:	468c      	mov	ip, r1
     932:	469a      	mov	sl, r3
	uint32_t b = x;
	uint32_t p = y >> 32;
	uint32_t q = y;

	
	uint64_t res = (b&0xffff)*(q&0xffff);
     934:	0401      	lsls	r1, r0, #16
     936:	0c0b      	lsrs	r3, r1, #16
     938:	469b      	mov	fp, r3
     93a:	0413      	lsls	r3, r2, #16
     93c:	0c1b      	lsrs	r3, r3, #16
     93e:	4699      	mov	r9, r3
     940:	4659      	mov	r1, fp
     942:	434b      	muls	r3, r1
     944:	001c      	movs	r4, r3
     946:	2500      	movs	r5, #0
	res += (uint64_t)((b >> 16)*(q>>16)) << 32;
     948:	0c03      	lsrs	r3, r0, #16
     94a:	4698      	mov	r8, r3
     94c:	0c13      	lsrs	r3, r2, #16
     94e:	2600      	movs	r6, #0
     950:	4641      	mov	r1, r8
     952:	4359      	muls	r1, r3
     954:	000f      	movs	r7, r1
     956:	1936      	adds	r6, r6, r4
     958:	416f      	adcs	r7, r5
	res += ((uint64_t)((b>>16)*(q&0xffff)) << 16) ;
     95a:	4649      	mov	r1, r9
     95c:	4644      	mov	r4, r8
     95e:	4361      	muls	r1, r4
     960:	0c0d      	lsrs	r5, r1, #16
     962:	040c      	lsls	r4, r1, #16
     964:	1936      	adds	r6, r6, r4
     966:	416f      	adcs	r7, r5
	res += ((uint64_t)((q>>16)*(b&0xffff)) << 16) ;
     968:	4659      	mov	r1, fp
     96a:	434b      	muls	r3, r1
     96c:	0c1d      	lsrs	r5, r3, #16
     96e:	041c      	lsls	r4, r3, #16
     970:	1936      	adds	r6, r6, r4
     972:	416f      	adcs	r7, r5
	
	res += (uint64_t)(a*q) << 32;
     974:	2400      	movs	r4, #0
     976:	4663      	mov	r3, ip
     978:	4353      	muls	r3, r2
     97a:	001d      	movs	r5, r3
     97c:	19a4      	adds	r4, r4, r6
     97e:	417d      	adcs	r5, r7
	res += (uint64_t)(b*p) << 32;
     980:	2200      	movs	r2, #0
     982:	4651      	mov	r1, sl
     984:	4341      	muls	r1, r0
     986:	000b      	movs	r3, r1
     988:	1912      	adds	r2, r2, r4
     98a:	416b      	adcs	r3, r5
     98c:	0010      	movs	r0, r2
     98e:	0019      	movs	r1, r3
	return res;
	
}
     990:	bcf0      	pop	{r4, r5, r6, r7}
     992:	46bb      	mov	fp, r7
     994:	46b2      	mov	sl, r6
     996:	46a9      	mov	r9, r5
     998:	46a0      	mov	r8, r4
     99a:	bdf0      	pop	{r4, r5, r6, r7, pc}

0000099c <ntcToTemp>:
	return adc_res;
}

//Takes ADC reading as a parameter and returns NTC temperature*100 in Celcius
static int16_t ntcToTemp(uint16_t adc)
{
     99c:	b5f8      	push	{r3, r4, r5, r6, r7, lr}
     99e:	46ce      	mov	lr, r9
     9a0:	4647      	mov	r7, r8
     9a2:	b580      	push	{r7, lr}
     9a4:	4680      	mov	r8, r0
	y = 1458*x^3*2^-32 + 2405*x^2*2^-20 + 7405*x*2^-10 + 10578;
	*/
	
	
	uint64_t p2, p3;//*x*x*455/1e11;
	p2 = multi3(x, x);
     9a6:	0002      	movs	r2, r0
     9a8:	2300      	movs	r3, #0
     9aa:	2100      	movs	r1, #0
     9ac:	4c15      	ldr	r4, [pc, #84]	; (a04 <ntcToTemp+0x68>)
     9ae:	46a1      	mov	r9, r4
     9b0:	47a0      	blx	r4
     9b2:	0005      	movs	r5, r0
     9b4:	000c      	movs	r4, r1
	p3 = multi3(p2, x);
     9b6:	4642      	mov	r2, r8
     9b8:	2300      	movs	r3, #0
     9ba:	47c8      	blx	r9
	
	uint64_t t3 = (multi3(p3, x3_coeff));
     9bc:	4a12      	ldr	r2, [pc, #72]	; (a08 <ntcToTemp+0x6c>)
     9be:	2300      	movs	r3, #0
     9c0:	47c8      	blx	r9
	t3 = t3 >> x3_shr;
     9c2:	000e      	movs	r6, r1
     9c4:	2700      	movs	r7, #0
	
	uint64_t t2 = (multi3(p2, x2_coeff));
     9c6:	4a11      	ldr	r2, [pc, #68]	; (a0c <ntcToTemp+0x70>)
     9c8:	2300      	movs	r3, #0
     9ca:	0028      	movs	r0, r5
     9cc:	0021      	movs	r1, r4
     9ce:	47c8      	blx	r9
	t2 = t2 >> x2_shr;
     9d0:	030b      	lsls	r3, r1, #12
     9d2:	0d04      	lsrs	r4, r0, #20
     9d4:	431c      	orrs	r4, r3
     9d6:	0d0d      	lsrs	r5, r1, #20
	
	uint64_t t1 = (multi3(x, x_coeff));
     9d8:	4a0d      	ldr	r2, [pc, #52]	; (a10 <ntcToTemp+0x74>)
     9da:	2300      	movs	r3, #0
     9dc:	4640      	mov	r0, r8
     9de:	2100      	movs	r1, #0
     9e0:	47c8      	blx	r9
	t1 = t1 >> x_shr;
     9e2:	058b      	lsls	r3, r1, #22
     9e4:	0a82      	lsrs	r2, r0, #10
     9e6:	431a      	orrs	r2, r3
     9e8:	0a8b      	lsrs	r3, r1, #10
	
	int64_t y = 10578 + t2 - t3 - t1;
     9ea:	1ba4      	subs	r4, r4, r6
     9ec:	41bd      	sbcs	r5, r7
     9ee:	1aa4      	subs	r4, r4, r2
     9f0:	419d      	sbcs	r5, r3
     9f2:	4a08      	ldr	r2, [pc, #32]	; (a14 <ntcToTemp+0x78>)
     9f4:	2300      	movs	r3, #0
     9f6:	18a4      	adds	r4, r4, r2
     9f8:	415d      	adcs	r5, r3
	
	
	return y ;
     9fa:	b220      	sxth	r0, r4
	
}
     9fc:	bcc0      	pop	{r6, r7}
     9fe:	46b9      	mov	r9, r7
     a00:	46b0      	mov	r8, r6
     a02:	bdf8      	pop	{r3, r4, r5, r6, r7, pc}
     a04:	00000925 	.word	0x00000925
     a08:	000005b2 	.word	0x000005b2
     a0c:	00000965 	.word	0x00000965
     a10:	00001ced 	.word	0x00001ced
     a14:	00002952 	.word	0x00002952

00000a18 <irToTemp>:



static int16_t irToTemp(uint16_t adc)
{
     a18:	b5f8      	push	{r3, r4, r5, r6, r7, lr}
     a1a:	46ce      	mov	lr, r9
     a1c:	4647      	mov	r7, r8
     a1e:	b580      	push	{r7, lr}
     a20:	4680      	mov	r8, r0
	y = 2009*x^3*2^-32 - 5897*x^2*2^-20 + 29999*x^-10 - 32192;
	*/
	
	
	uint64_t p2, p3;
	p2 = multi3(x, x);
     a22:	0002      	movs	r2, r0
     a24:	2300      	movs	r3, #0
     a26:	2100      	movs	r1, #0
     a28:	4c16      	ldr	r4, [pc, #88]	; (a84 <irToTemp+0x6c>)
     a2a:	46a1      	mov	r9, r4
     a2c:	47a0      	blx	r4
     a2e:	0005      	movs	r5, r0
     a30:	000c      	movs	r4, r1
	p3 = multi3(p2, x);
     a32:	4642      	mov	r2, r8
     a34:	2300      	movs	r3, #0
     a36:	47c8      	blx	r9
	
	uint64_t t3 = (multi3(p3, x3_coeff));
     a38:	4a13      	ldr	r2, [pc, #76]	; (a88 <irToTemp+0x70>)
     a3a:	2300      	movs	r3, #0
     a3c:	47c8      	blx	r9
	t3 = t3 >> x3_shr;
     a3e:	000e      	movs	r6, r1
     a40:	2700      	movs	r7, #0
	
	uint64_t t2 = (multi3(p2, x2_coeff));
     a42:	4a12      	ldr	r2, [pc, #72]	; (a8c <irToTemp+0x74>)
     a44:	2300      	movs	r3, #0
     a46:	0028      	movs	r0, r5
     a48:	0021      	movs	r1, r4
     a4a:	47c8      	blx	r9
	t2 = t2 >> x2_shr;
     a4c:	030b      	lsls	r3, r1, #12
     a4e:	0d04      	lsrs	r4, r0, #20
     a50:	431c      	orrs	r4, r3
     a52:	0d0d      	lsrs	r5, r1, #20
	
	uint64_t t1 = (multi3(x, x_coeff));
     a54:	4a0e      	ldr	r2, [pc, #56]	; (a90 <irToTemp+0x78>)
     a56:	2300      	movs	r3, #0
     a58:	4640      	mov	r0, r8
     a5a:	2100      	movs	r1, #0
     a5c:	47c8      	blx	r9
	t1 = t1 >> x_shr;
     a5e:	058b      	lsls	r3, r1, #22
     a60:	0a82      	lsrs	r2, r0, #10
     a62:	431a      	orrs	r2, r3
     a64:	0a8b      	lsrs	r3, r1, #10
	
	int64_t y = t3+t1-t2-32192;
     a66:	18b6      	adds	r6, r6, r2
     a68:	415f      	adcs	r7, r3
     a6a:	1b36      	subs	r6, r6, r4
     a6c:	41af      	sbcs	r7, r5
     a6e:	4a09      	ldr	r2, [pc, #36]	; (a94 <irToTemp+0x7c>)
     a70:	2301      	movs	r3, #1
     a72:	425b      	negs	r3, r3
     a74:	18b6      	adds	r6, r6, r2
     a76:	415f      	adcs	r7, r3
	
	
	return y ;
     a78:	b230      	sxth	r0, r6
}
     a7a:	bcc0      	pop	{r6, r7}
     a7c:	46b9      	mov	r9, r7
     a7e:	46b0      	mov	r8, r6
     a80:	bdf8      	pop	{r3, r4, r5, r6, r7, pc}
     a82:	46c0      	nop			; (mov r8, r8)
     a84:	00000925 	.word	0x00000925
     a88:	000007d9 	.word	0x000007d9
     a8c:	00001709 	.word	0x00001709
     a90:	00006977 	.word	0x00006977
     a94:	ffff8240 	.word	0xffff8240

00000a98 <mrt311_init>:
{
     a98:	b510      	push	{r4, lr}
	PORT->Group[0].PINCFG[14].bit.PMUXEN = 1;
     a9a:	4b2d      	ldr	r3, [pc, #180]	; (b50 <mrt311_init+0xb8>)
     a9c:	204e      	movs	r0, #78	; 0x4e
     a9e:	5c1a      	ldrb	r2, [r3, r0]
     aa0:	2101      	movs	r1, #1
     aa2:	430a      	orrs	r2, r1
     aa4:	541a      	strb	r2, [r3, r0]
	PORT->Group[0].PINCFG[15].bit.PMUXEN = 1;
     aa6:	3001      	adds	r0, #1
     aa8:	5c1a      	ldrb	r2, [r3, r0]
     aaa:	430a      	orrs	r2, r1
     aac:	541a      	strb	r2, [r3, r0]
	PORT->Group[0].PMUX[7].bit.PMUXO = PORT_PMUX_PMUXE_B | PORT_PMUX_PMUXO_B;
     aae:	3818      	subs	r0, #24
     ab0:	5c1c      	ldrb	r4, [r3, r0]
     ab2:	220f      	movs	r2, #15
     ab4:	4022      	ands	r2, r4
     ab6:	2410      	movs	r4, #16
     ab8:	4322      	orrs	r2, r4
     aba:	541a      	strb	r2, [r3, r0]
	PM->APBCMASK.bit.ADC_ = 1; // Enable ADC Bus clock
     abc:	4a25      	ldr	r2, [pc, #148]	; (b54 <mrt311_init+0xbc>)
     abe:	6a10      	ldr	r0, [r2, #32]
     ac0:	2380      	movs	r3, #128	; 0x80
     ac2:	005b      	lsls	r3, r3, #1
     ac4:	4303      	orrs	r3, r0
     ac6:	6213      	str	r3, [r2, #32]
	ADC->CTRLA.bit.SWRST = 1;//Reset ADC
     ac8:	4a23      	ldr	r2, [pc, #140]	; (b58 <mrt311_init+0xc0>)
     aca:	7813      	ldrb	r3, [r2, #0]
     acc:	430b      	orrs	r3, r1
     ace:	7013      	strb	r3, [r2, #0]
	while(ADC->STATUS.bit.SYNCBUSY);
     ad0:	4b21      	ldr	r3, [pc, #132]	; (b58 <mrt311_init+0xc0>)
     ad2:	7e5b      	ldrb	r3, [r3, #25]
     ad4:	09db      	lsrs	r3, r3, #7
     ad6:	d1fb      	bne.n	ad0 <mrt311_init+0x38>
	ADC->REFCTRL.bit.REFSEL = 0x02; //REF = VDDANA*0.5
     ad8:	4b1f      	ldr	r3, [pc, #124]	; (b58 <mrt311_init+0xc0>)
     ada:	785a      	ldrb	r2, [r3, #1]
     adc:	210f      	movs	r1, #15
     ade:	438a      	bics	r2, r1
     ae0:	2002      	movs	r0, #2
     ae2:	4302      	orrs	r2, r0
     ae4:	705a      	strb	r2, [r3, #1]
	ADC->AVGCTRL.bit.SAMPLENUM = 4; //add 16 samples
     ae6:	789a      	ldrb	r2, [r3, #2]
     ae8:	438a      	bics	r2, r1
     aea:	2104      	movs	r1, #4
     aec:	430a      	orrs	r2, r1
     aee:	709a      	strb	r2, [r3, #2]
	ADC->AVGCTRL.bit.ADJRES = 2; //Shift right by 2
     af0:	789a      	ldrb	r2, [r3, #2]
     af2:	2170      	movs	r1, #112	; 0x70
     af4:	438a      	bics	r2, r1
     af6:	2120      	movs	r1, #32
     af8:	430a      	orrs	r2, r1
     afa:	709a      	strb	r2, [r3, #2]
	ADC->SAMPCTRL.bit.SAMPLEN = 32; //32 * CLK_ADC/2 sample time
     afc:	78da      	ldrb	r2, [r3, #3]
     afe:	203f      	movs	r0, #63	; 0x3f
     b00:	4382      	bics	r2, r0
     b02:	430a      	orrs	r2, r1
     b04:	70da      	strb	r2, [r3, #3]
	ADC->CTRLB.reg =  (0x07 << ADC_CTRLB_PRESCALER_Pos) | //512 clock prescaler
     b06:	22e2      	movs	r2, #226	; 0xe2
     b08:	00d2      	lsls	r2, r2, #3
     b0a:	809a      	strh	r2, [r3, #4]
	while(ADC->STATUS.bit.SYNCBUSY);
     b0c:	4b12      	ldr	r3, [pc, #72]	; (b58 <mrt311_init+0xc0>)
     b0e:	7e5b      	ldrb	r3, [r3, #25]
     b10:	09db      	lsrs	r3, r3, #7
     b12:	d1fb      	bne.n	b0c <mrt311_init+0x74>
	ADC->INPUTCTRL.reg = (0xf << ADC_INPUTCTRL_GAIN_Pos) | //0.5x gain
     b14:	4b10      	ldr	r3, [pc, #64]	; (b58 <mrt311_init+0xc0>)
     b16:	4a11      	ldr	r2, [pc, #68]	; (b5c <mrt311_init+0xc4>)
     b18:	611a      	str	r2, [r3, #16]
	while(ADC->STATUS.bit.SYNCBUSY);
     b1a:	4b0f      	ldr	r3, [pc, #60]	; (b58 <mrt311_init+0xc0>)
     b1c:	7e5b      	ldrb	r3, [r3, #25]
     b1e:	09db      	lsrs	r3, r3, #7
     b20:	d1fb      	bne.n	b1a <mrt311_init+0x82>
	ADC->CTRLA.bit.ENABLE = 1;
     b22:	4a0d      	ldr	r2, [pc, #52]	; (b58 <mrt311_init+0xc0>)
     b24:	7813      	ldrb	r3, [r2, #0]
     b26:	2102      	movs	r1, #2
     b28:	430b      	orrs	r3, r1
     b2a:	7013      	strb	r3, [r2, #0]
	while(ADC->STATUS.bit.SYNCBUSY);
     b2c:	4b0a      	ldr	r3, [pc, #40]	; (b58 <mrt311_init+0xc0>)
     b2e:	7e5b      	ldrb	r3, [r3, #25]
     b30:	09db      	lsrs	r3, r3, #7
     b32:	d1fb      	bne.n	b2c <mrt311_init+0x94>
	ADC->SWTRIG.bit.START = 1; //Perform one ADC read (datasheet: first reading should be discarded)
     b34:	4a08      	ldr	r2, [pc, #32]	; (b58 <mrt311_init+0xc0>)
     b36:	7b13      	ldrb	r3, [r2, #12]
     b38:	2102      	movs	r1, #2
     b3a:	430b      	orrs	r3, r1
     b3c:	7313      	strb	r3, [r2, #12]
	while(!(ADC->INTFLAG.bit.RESRDY));
     b3e:	4b06      	ldr	r3, [pc, #24]	; (b58 <mrt311_init+0xc0>)
     b40:	7e1b      	ldrb	r3, [r3, #24]
     b42:	07db      	lsls	r3, r3, #31
     b44:	d5fb      	bpl.n	b3e <mrt311_init+0xa6>
	ADC->INTFLAG.reg = ADC_INTFLAG_RESRDY; //Clear interrupt flag
     b46:	4b04      	ldr	r3, [pc, #16]	; (b58 <mrt311_init+0xc0>)
     b48:	2201      	movs	r2, #1
     b4a:	761a      	strb	r2, [r3, #24]
}
     b4c:	bd10      	pop	{r4, pc}
     b4e:	46c0      	nop			; (mov r8, r8)
     b50:	41004400 	.word	0x41004400
     b54:	40000400 	.word	0x40000400
     b58:	42002000 	.word	0x42002000
     b5c:	0f001807 	.word	0x0f001807

00000b60 <mrt311_setADCInput>:
	(0x18 << ADC_INPUTCTRL_MUXNEG_Pos) | //Neg input is GND
     b60:	4b04      	ldr	r3, [pc, #16]	; (b74 <mrt311_setADCInput+0x14>)
     b62:	4303      	orrs	r3, r0
	ADC->INPUTCTRL.reg = (0xf << ADC_INPUTCTRL_GAIN_Pos) | //0.5x gain
     b64:	4a04      	ldr	r2, [pc, #16]	; (b78 <mrt311_setADCInput+0x18>)
     b66:	6113      	str	r3, [r2, #16]
	while(ADC->STATUS.bit.SYNCBUSY);
     b68:	4b03      	ldr	r3, [pc, #12]	; (b78 <mrt311_setADCInput+0x18>)
     b6a:	7e5b      	ldrb	r3, [r3, #25]
     b6c:	09db      	lsrs	r3, r3, #7
     b6e:	d1fb      	bne.n	b68 <mrt311_setADCInput+0x8>
}
     b70:	4770      	bx	lr
     b72:	46c0      	nop			; (mov r8, r8)
     b74:	0f001800 	.word	0x0f001800
     b78:	42002000 	.word	0x42002000

00000b7c <mrt311_readADC>:
	ADC->SWTRIG.bit.START = 1;
     b7c:	4a06      	ldr	r2, [pc, #24]	; (b98 <mrt311_readADC+0x1c>)
     b7e:	7b13      	ldrb	r3, [r2, #12]
     b80:	2102      	movs	r1, #2
     b82:	430b      	orrs	r3, r1
     b84:	7313      	strb	r3, [r2, #12]
	while(!(ADC->INTFLAG.bit.RESRDY));
     b86:	4b04      	ldr	r3, [pc, #16]	; (b98 <mrt311_readADC+0x1c>)
     b88:	7e1b      	ldrb	r3, [r3, #24]
     b8a:	07db      	lsls	r3, r3, #31
     b8c:	d5fb      	bpl.n	b86 <mrt311_readADC+0xa>
	uint32_t adc_res =  ADC->RESULT.reg;
     b8e:	4b02      	ldr	r3, [pc, #8]	; (b98 <mrt311_readADC+0x1c>)
     b90:	8b58      	ldrh	r0, [r3, #26]
     b92:	b280      	uxth	r0, r0
}
     b94:	4770      	bx	lr
     b96:	46c0      	nop			; (mov r8, r8)
     b98:	42002000 	.word	0x42002000

00000b9c <mrt311_read>:

uint16_t mrt311_read(uint16_t* object, int16_t* sensor, int16_t* object_raw, int16_t* sensor_raw)
{
     b9c:	b5f0      	push	{r4, r5, r6, r7, lr}
     b9e:	46d6      	mov	lr, sl
     ba0:	464f      	mov	r7, r9
     ba2:	4646      	mov	r6, r8
     ba4:	b5c0      	push	{r6, r7, lr}
     ba6:	4681      	mov	r9, r0
     ba8:	4688      	mov	r8, r1
     baa:	0017      	movs	r7, r2
     bac:	469a      	mov	sl, r3
	
	uint32_t ir_adc, ntc_adc;
	
	mrt311_setADCInput(MRT311_IR_ADC);
     bae:	2007      	movs	r0, #7
     bb0:	4e0e      	ldr	r6, [pc, #56]	; (bec <mrt311_read+0x50>)
     bb2:	47b0      	blx	r6
	ir_adc = mrt311_readADC() ;
     bb4:	4c0e      	ldr	r4, [pc, #56]	; (bf0 <mrt311_read+0x54>)
     bb6:	47a0      	blx	r4
     bb8:	0005      	movs	r5, r0

	mrt311_setADCInput(MRT311_NTC_ADC);
     bba:	2006      	movs	r0, #6
     bbc:	47b0      	blx	r6
	ntc_adc = mrt311_readADC();
     bbe:	47a0      	blx	r4
     bc0:	0004      	movs	r4, r0
	

	*object = irToTemp(ir_adc / 4); //read_ADC function performs oversampling by 2 bits, drop these 2 bits before processing.
     bc2:	08a8      	lsrs	r0, r5, #2
     bc4:	b280      	uxth	r0, r0
     bc6:	4b0b      	ldr	r3, [pc, #44]	; (bf4 <mrt311_read+0x58>)
     bc8:	4798      	blx	r3
     bca:	464b      	mov	r3, r9
     bcc:	8018      	strh	r0, [r3, #0]
	*sensor = ntcToTemp(ntc_adc / 4);
     bce:	08a0      	lsrs	r0, r4, #2
     bd0:	b280      	uxth	r0, r0
     bd2:	4b09      	ldr	r3, [pc, #36]	; (bf8 <mrt311_read+0x5c>)
     bd4:	4798      	blx	r3
     bd6:	4643      	mov	r3, r8
     bd8:	8018      	strh	r0, [r3, #0]
	
	*object_raw = ir_adc;
     bda:	803d      	strh	r5, [r7, #0]
	*sensor_raw = ntc_adc;
     bdc:	4653      	mov	r3, sl
     bde:	801c      	strh	r4, [r3, #0]
	
	return K_SENSOR_OK;
		
}
     be0:	2000      	movs	r0, #0
     be2:	bce0      	pop	{r5, r6, r7}
     be4:	46ba      	mov	sl, r7
     be6:	46b1      	mov	r9, r6
     be8:	46a8      	mov	r8, r5
     bea:	bdf0      	pop	{r4, r5, r6, r7, pc}
     bec:	00000b61 	.word	0x00000b61
     bf0:	00000b7d 	.word	0x00000b7d
     bf4:	00000a19 	.word	0x00000a19
     bf8:	0000099d 	.word	0x0000099d

00000bfc <clock_init>:
     bfc:	b510      	push	{r4, lr}
     bfe:	4a46      	ldr	r2, [pc, #280]	; (d18 <clock_init+0x11c>)
     c00:	6853      	ldr	r3, [r2, #4]
     c02:	211e      	movs	r1, #30
     c04:	438b      	bics	r3, r1
     c06:	391c      	subs	r1, #28
     c08:	430b      	orrs	r3, r1
     c0a:	6053      	str	r3, [r2, #4]
     c0c:	4b43      	ldr	r3, [pc, #268]	; (d1c <clock_init+0x120>)
     c0e:	68db      	ldr	r3, [r3, #12]
     c10:	06db      	lsls	r3, r3, #27
     c12:	d5fb      	bpl.n	c0c <clock_init+0x10>
     c14:	4b41      	ldr	r3, [pc, #260]	; (d1c <clock_init+0x120>)
     c16:	2291      	movs	r2, #145	; 0x91
     c18:	0052      	lsls	r2, r2, #1
     c1a:	849a      	strh	r2, [r3, #36]	; 0x24
     c1c:	4b3f      	ldr	r3, [pc, #252]	; (d1c <clock_init+0x120>)
     c1e:	68db      	ldr	r3, [r3, #12]
     c20:	06db      	lsls	r3, r3, #27
     c22:	d5fb      	bpl.n	c1c <clock_init+0x20>
     c24:	4b3d      	ldr	r3, [pc, #244]	; (d1c <clock_init+0x120>)
     c26:	6a9a      	ldr	r2, [r3, #40]	; 0x28
     c28:	493d      	ldr	r1, [pc, #244]	; (d20 <clock_init+0x124>)
     c2a:	4011      	ands	r1, r2
     c2c:	22c0      	movs	r2, #192	; 0xc0
     c2e:	01d2      	lsls	r2, r2, #7
     c30:	430a      	orrs	r2, r1
     c32:	629a      	str	r2, [r3, #40]	; 0x28
     c34:	493b      	ldr	r1, [pc, #236]	; (d24 <clock_init+0x128>)
     c36:	4a3c      	ldr	r2, [pc, #240]	; (d28 <clock_init+0x12c>)
     c38:	4311      	orrs	r1, r2
     c3a:	22c0      	movs	r2, #192	; 0xc0
     c3c:	05d2      	lsls	r2, r2, #23
     c3e:	430a      	orrs	r2, r1
     c40:	62da      	str	r2, [r3, #44]	; 0x2c
     c42:	4b36      	ldr	r3, [pc, #216]	; (d1c <clock_init+0x120>)
     c44:	68db      	ldr	r3, [r3, #12]
     c46:	06db      	lsls	r3, r3, #27
     c48:	d5fb      	bpl.n	c42 <clock_init+0x46>
     c4a:	4a34      	ldr	r2, [pc, #208]	; (d1c <clock_init+0x120>)
     c4c:	8c93      	ldrh	r3, [r2, #36]	; 0x24
     c4e:	2104      	movs	r1, #4
     c50:	430b      	orrs	r3, r1
     c52:	8493      	strh	r3, [r2, #36]	; 0x24
     c54:	22e0      	movs	r2, #224	; 0xe0
     c56:	00d2      	lsls	r2, r2, #3
     c58:	2380      	movs	r3, #128	; 0x80
     c5a:	025b      	lsls	r3, r3, #9
     c5c:	431a      	orrs	r2, r3
     c5e:	2380      	movs	r3, #128	; 0x80
     c60:	029b      	lsls	r3, r3, #10
     c62:	4313      	orrs	r3, r2
     c64:	4a31      	ldr	r2, [pc, #196]	; (d2c <clock_init+0x130>)
     c66:	6053      	str	r3, [r2, #4]
     c68:	4b30      	ldr	r3, [pc, #192]	; (d2c <clock_init+0x130>)
     c6a:	785b      	ldrb	r3, [r3, #1]
     c6c:	09db      	lsrs	r3, r3, #7
     c6e:	d1fb      	bne.n	c68 <clock_init+0x6c>
     c70:	2206      	movs	r2, #6
     c72:	2380      	movs	r3, #128	; 0x80
     c74:	01db      	lsls	r3, r3, #7
     c76:	4313      	orrs	r3, r2
     c78:	4a2c      	ldr	r2, [pc, #176]	; (d2c <clock_init+0x130>)
     c7a:	8053      	strh	r3, [r2, #2]
     c7c:	4b2b      	ldr	r3, [pc, #172]	; (d2c <clock_init+0x130>)
     c7e:	785b      	ldrb	r3, [r3, #1]
     c80:	09db      	lsrs	r3, r3, #7
     c82:	d1fb      	bne.n	c7c <clock_init+0x80>
     c84:	3304      	adds	r3, #4
     c86:	21c0      	movs	r1, #192	; 0xc0
     c88:	0149      	lsls	r1, r1, #5
     c8a:	4319      	orrs	r1, r3
     c8c:	4827      	ldr	r0, [pc, #156]	; (d2c <clock_init+0x130>)
     c8e:	6081      	str	r1, [r0, #8]
     c90:	22e0      	movs	r2, #224	; 0xe0
     c92:	00d2      	lsls	r2, r2, #3
     c94:	4313      	orrs	r3, r2
     c96:	2280      	movs	r2, #128	; 0x80
     c98:	0252      	lsls	r2, r2, #9
     c9a:	431a      	orrs	r2, r3
     c9c:	2380      	movs	r3, #128	; 0x80
     c9e:	029b      	lsls	r3, r3, #10
     ca0:	431a      	orrs	r2, r3
     ca2:	2380      	movs	r3, #128	; 0x80
     ca4:	031b      	lsls	r3, r3, #12
     ca6:	4313      	orrs	r3, r2
     ca8:	6043      	str	r3, [r0, #4]
     caa:	4b20      	ldr	r3, [pc, #128]	; (d2c <clock_init+0x130>)
     cac:	785b      	ldrb	r3, [r3, #1]
     cae:	09db      	lsrs	r3, r3, #7
     cb0:	d1fb      	bne.n	caa <clock_init+0xae>
     cb2:	220f      	movs	r2, #15
     cb4:	2380      	movs	r3, #128	; 0x80
     cb6:	00db      	lsls	r3, r3, #3
     cb8:	431a      	orrs	r2, r3
     cba:	2380      	movs	r3, #128	; 0x80
     cbc:	01db      	lsls	r3, r3, #7
     cbe:	4313      	orrs	r3, r2
     cc0:	4a1a      	ldr	r2, [pc, #104]	; (d2c <clock_init+0x130>)
     cc2:	8053      	strh	r3, [r2, #2]
     cc4:	4b19      	ldr	r3, [pc, #100]	; (d2c <clock_init+0x130>)
     cc6:	785b      	ldrb	r3, [r3, #1]
     cc8:	09db      	lsrs	r3, r3, #7
     cca:	d1fb      	bne.n	cc4 <clock_init+0xc8>
     ccc:	2213      	movs	r2, #19
     cce:	2380      	movs	r3, #128	; 0x80
     cd0:	00db      	lsls	r3, r3, #3
     cd2:	431a      	orrs	r2, r3
     cd4:	2380      	movs	r3, #128	; 0x80
     cd6:	01db      	lsls	r3, r3, #7
     cd8:	4313      	orrs	r3, r2
     cda:	4a14      	ldr	r2, [pc, #80]	; (d2c <clock_init+0x130>)
     cdc:	8053      	strh	r3, [r2, #2]
     cde:	4b13      	ldr	r3, [pc, #76]	; (d2c <clock_init+0x130>)
     ce0:	785b      	ldrb	r3, [r3, #1]
     ce2:	09db      	lsrs	r3, r3, #7
     ce4:	d1fb      	bne.n	cde <clock_init+0xe2>
     ce6:	4a12      	ldr	r2, [pc, #72]	; (d30 <clock_init+0x134>)
     ce8:	7213      	strb	r3, [r2, #8]
     cea:	7253      	strb	r3, [r2, #9]
     cec:	7293      	strb	r3, [r2, #10]
     cee:	72d3      	strb	r3, [r2, #11]
     cf0:	4910      	ldr	r1, [pc, #64]	; (d34 <clock_init+0x138>)
     cf2:	600b      	str	r3, [r1, #0]
     cf4:	4a10      	ldr	r2, [pc, #64]	; (d38 <clock_init+0x13c>)
     cf6:	604a      	str	r2, [r1, #4]
     cf8:	4c10      	ldr	r4, [pc, #64]	; (d3c <clock_init+0x140>)
     cfa:	6a22      	ldr	r2, [r4, #32]
     cfc:	0212      	lsls	r2, r2, #8
     cfe:	0a12      	lsrs	r2, r2, #8
     d00:	20c0      	movs	r0, #192	; 0xc0
     d02:	0600      	lsls	r0, r0, #24
     d04:	4302      	orrs	r2, r0
     d06:	6222      	str	r2, [r4, #32]
     d08:	608b      	str	r3, [r1, #8]
     d0a:	3307      	adds	r3, #7
     d0c:	600b      	str	r3, [r1, #0]
     d0e:	4b0c      	ldr	r3, [pc, #48]	; (d40 <clock_init+0x144>)
     d10:	2280      	movs	r2, #128	; 0x80
     d12:	0612      	lsls	r2, r2, #24
     d14:	601a      	str	r2, [r3, #0]
     d16:	bd10      	pop	{r4, pc}
     d18:	41004000 	.word	0x41004000
     d1c:	40000800 	.word	0x40000800
     d20:	ffff03ff 	.word	0xffff03ff
     d24:	0000bb80 	.word	0x0000bb80
     d28:	01ff0000 	.word	0x01ff0000
     d2c:	40000c00 	.word	0x40000c00
     d30:	40000400 	.word	0x40000400
     d34:	e000e010 	.word	0xe000e010
     d38:	0000bb7f 	.word	0x0000bb7f
     d3c:	e000ed00 	.word	0xe000ed00
     d40:	e000e100 	.word	0xe000e100

00000d44 <clock_getTicks>:
     d44:	4b01      	ldr	r3, [pc, #4]	; (d4c <clock_getTicks+0x8>)
     d46:	6818      	ldr	r0, [r3, #0]
     d48:	4770      	bx	lr
     d4a:	46c0      	nop			; (mov r8, r8)
     d4c:	2000017c 	.word	0x2000017c

00000d50 <SysTick_Handler>:
     d50:	4a02      	ldr	r2, [pc, #8]	; (d5c <SysTick_Handler+0xc>)
     d52:	6813      	ldr	r3, [r2, #0]
     d54:	3301      	adds	r3, #1
     d56:	6013      	str	r3, [r2, #0]
     d58:	4770      	bx	lr
     d5a:	46c0      	nop			; (mov r8, r8)
     d5c:	2000017c 	.word	0x2000017c

00000d60 <clock_delayMs>:
     d60:	b570      	push	{r4, r5, r6, lr}
     d62:	0005      	movs	r5, r0
     d64:	4b04      	ldr	r3, [pc, #16]	; (d78 <clock_delayMs+0x18>)
     d66:	4798      	blx	r3
     d68:	0004      	movs	r4, r0
     d6a:	4b03      	ldr	r3, [pc, #12]	; (d78 <clock_delayMs+0x18>)
     d6c:	4798      	blx	r3
     d6e:	1b00      	subs	r0, r0, r4
     d70:	42a8      	cmp	r0, r5
     d72:	d3fa      	bcc.n	d6a <clock_delayMs+0xa>
     d74:	bd70      	pop	{r4, r5, r6, pc}
     d76:	46c0      	nop			; (mov r8, r8)
     d78:	00000d45 	.word	0x00000d45

00000d7c <dev_led>:
     d7c:	2800      	cmp	r0, #0
     d7e:	d109      	bne.n	d94 <dev_led+0x18>
     d80:	2900      	cmp	r1, #0
     d82:	d003      	beq.n	d8c <dev_led+0x10>
     d84:	4b0a      	ldr	r3, [pc, #40]	; (db0 <dev_led+0x34>)
     d86:	2210      	movs	r2, #16
     d88:	619a      	str	r2, [r3, #24]
     d8a:	e005      	b.n	d98 <dev_led+0x1c>
     d8c:	4b08      	ldr	r3, [pc, #32]	; (db0 <dev_led+0x34>)
     d8e:	2210      	movs	r2, #16
     d90:	615a      	str	r2, [r3, #20]
     d92:	e001      	b.n	d98 <dev_led+0x1c>
     d94:	2801      	cmp	r0, #1
     d96:	d000      	beq.n	d9a <dev_led+0x1e>
     d98:	4770      	bx	lr
     d9a:	2900      	cmp	r1, #0
     d9c:	d003      	beq.n	da6 <dev_led+0x2a>
     d9e:	4b04      	ldr	r3, [pc, #16]	; (db0 <dev_led+0x34>)
     da0:	2220      	movs	r2, #32
     da2:	619a      	str	r2, [r3, #24]
     da4:	e7f8      	b.n	d98 <dev_led+0x1c>
     da6:	4b02      	ldr	r3, [pc, #8]	; (db0 <dev_led+0x34>)
     da8:	2220      	movs	r2, #32
     daa:	615a      	str	r2, [r3, #20]
     dac:	e7f4      	b.n	d98 <dev_led+0x1c>
     dae:	46c0      	nop			; (mov r8, r8)
     db0:	41004400 	.word	0x41004400

00000db4 <dev_init>:
     db4:	4b01      	ldr	r3, [pc, #4]	; (dbc <dev_init+0x8>)
     db6:	2230      	movs	r2, #48	; 0x30
     db8:	609a      	str	r2, [r3, #8]
     dba:	4770      	bx	lr
     dbc:	41004400 	.word	0x41004400

00000dc0 <main>:
     dc0:	b510      	push	{r4, lr}
     dc2:	b0c2      	sub	sp, #264	; 0x108
     dc4:	4b24      	ldr	r3, [pc, #144]	; (e58 <main+0x98>)
     dc6:	4798      	blx	r3
     dc8:	4b24      	ldr	r3, [pc, #144]	; (e5c <main+0x9c>)
     dca:	4798      	blx	r3
     dcc:	4b24      	ldr	r3, [pc, #144]	; (e60 <main+0xa0>)
     dce:	4798      	blx	r3
     dd0:	4b24      	ldr	r3, [pc, #144]	; (e64 <main+0xa4>)
     dd2:	22c0      	movs	r2, #192	; 0xc0
     dd4:	0412      	lsls	r2, r2, #16
     dd6:	609a      	str	r2, [r3, #8]
     dd8:	2156      	movs	r1, #86	; 0x56
     dda:	5c5a      	ldrb	r2, [r3, r1]
     ddc:	2002      	movs	r0, #2
     dde:	4302      	orrs	r2, r0
     de0:	545a      	strb	r2, [r3, r1]
     de2:	4b21      	ldr	r3, [pc, #132]	; (e68 <main+0xa8>)
     de4:	4798      	blx	r3
     de6:	4b21      	ldr	r3, [pc, #132]	; (e6c <main+0xac>)
     de8:	4798      	blx	r3
     dea:	4b21      	ldr	r3, [pc, #132]	; (e70 <main+0xb0>)
     dec:	4798      	blx	r3
     dee:	4b21      	ldr	r3, [pc, #132]	; (e74 <main+0xb4>)
     df0:	4798      	blx	r3
     df2:	0004      	movs	r4, r0
     df4:	4b1f      	ldr	r3, [pc, #124]	; (e74 <main+0xb4>)
     df6:	4798      	blx	r3
     df8:	1b00      	subs	r0, r0, r4
     dfa:	2863      	cmp	r0, #99	; 0x63
     dfc:	d9fa      	bls.n	df4 <main+0x34>
     dfe:	4b1e      	ldr	r3, [pc, #120]	; (e78 <main+0xb8>)
     e00:	4798      	blx	r3
     e02:	4b1c      	ldr	r3, [pc, #112]	; (e74 <main+0xb4>)
     e04:	4798      	blx	r3
     e06:	0004      	movs	r4, r0
     e08:	4b1a      	ldr	r3, [pc, #104]	; (e74 <main+0xb4>)
     e0a:	4798      	blx	r3
     e0c:	1b00      	subs	r0, r0, r4
     e0e:	2863      	cmp	r0, #99	; 0x63
     e10:	d9fa      	bls.n	e08 <main+0x48>
     e12:	a801      	add	r0, sp, #4
     e14:	4b19      	ldr	r3, [pc, #100]	; (e7c <main+0xbc>)
     e16:	4798      	blx	r3
     e18:	4b19      	ldr	r3, [pc, #100]	; (e80 <main+0xc0>)
     e1a:	4798      	blx	r3
     e1c:	2064      	movs	r0, #100	; 0x64
     e1e:	4b19      	ldr	r3, [pc, #100]	; (e84 <main+0xc4>)
     e20:	4798      	blx	r3
     e22:	4b14      	ldr	r3, [pc, #80]	; (e74 <main+0xb4>)
     e24:	4798      	blx	r3
     e26:	0004      	movs	r4, r0
     e28:	e006      	b.n	e38 <main+0x78>
     e2a:	4b12      	ldr	r3, [pc, #72]	; (e74 <main+0xb4>)
     e2c:	4798      	blx	r3
     e2e:	0004      	movs	r4, r0
     e30:	211a      	movs	r1, #26
     e32:	a801      	add	r0, sp, #4
     e34:	4b14      	ldr	r3, [pc, #80]	; (e88 <main+0xc8>)
     e36:	4798      	blx	r3
     e38:	200a      	movs	r0, #10
     e3a:	4468      	add	r0, sp
     e3c:	4b13      	ldr	r3, [pc, #76]	; (e8c <main+0xcc>)
     e3e:	4798      	blx	r3
     e40:	ab01      	add	r3, sp, #4
     e42:	8098      	strh	r0, [r3, #4]
     e44:	2116      	movs	r1, #22
     e46:	5e5a      	ldrsh	r2, [r3, r1]
     e48:	3201      	adds	r2, #1
     e4a:	82da      	strh	r2, [r3, #22]
     e4c:	4b09      	ldr	r3, [pc, #36]	; (e74 <main+0xb4>)
     e4e:	4798      	blx	r3
     e50:	1b00      	subs	r0, r0, r4
     e52:	2863      	cmp	r0, #99	; 0x63
     e54:	d9fa      	bls.n	e4c <main+0x8c>
     e56:	e7e8      	b.n	e2a <main+0x6a>
     e58:	00002095 	.word	0x00002095
     e5c:	00000bfd 	.word	0x00000bfd
     e60:	00000db5 	.word	0x00000db5
     e64:	41004400 	.word	0x41004400
     e68:	00000f41 	.word	0x00000f41
     e6c:	00001ad9 	.word	0x00001ad9
     e70:	00001dd9 	.word	0x00001dd9
     e74:	00000d45 	.word	0x00000d45
     e78:	00001541 	.word	0x00001541
     e7c:	00000eb1 	.word	0x00000eb1
     e80:	00000edd 	.word	0x00000edd
     e84:	00000d61 	.word	0x00000d61
     e88:	000015b1 	.word	0x000015b1
     e8c:	00000ef5 	.word	0x00000ef5

00000e90 <HardFault_Handler>:
     e90:	e7fe      	b.n	e90 <HardFault_Handler>
	...

00000e94 <NonMaskableInt_Handler>:
     e94:	4b04      	ldr	r3, [pc, #16]	; (ea8 <NonMaskableInt_Handler+0x14>)
     e96:	2201      	movs	r2, #1
     e98:	705a      	strb	r2, [r3, #1]
     e9a:	4a04      	ldr	r2, [pc, #16]	; (eac <NonMaskableInt_Handler+0x18>)
     e9c:	78d3      	ldrb	r3, [r2, #3]
     e9e:	2101      	movs	r1, #1
     ea0:	430b      	orrs	r3, r1
     ea2:	70d3      	strb	r3, [r2, #3]
     ea4:	4770      	bx	lr
     ea6:	46c0      	nop			; (mov r8, r8)
     ea8:	20000088 	.word	0x20000088
     eac:	40001800 	.word	0x40001800

00000eb0 <sensor_initPacket>:
#error "Sensor type not defined"
#endif

uint8_t sensor_initPacket(Kiw_DataPacket* packet)
{
	g_packet = packet;
     eb0:	4b09      	ldr	r3, [pc, #36]	; (ed8 <sensor_initPacket+0x28>)
     eb2:	6018      	str	r0, [r3, #0]
	g_packet->type = (K_PKT_TYPE_DATA << 8) | (KIW_SENSOR_TYPE );
     eb4:	2209      	movs	r2, #9
     eb6:	7082      	strb	r2, [r0, #2]
     eb8:	3a08      	subs	r2, #8
     eba:	70c2      	strb	r2, [r0, #3]
	g_packet->header = 0x0A0A;
     ebc:	681a      	ldr	r2, [r3, #0]
     ebe:	210a      	movs	r1, #10
     ec0:	7011      	strb	r1, [r2, #0]
     ec2:	7051      	strb	r1, [r2, #1]
	g_packet->footer = 0x0B0B;
     ec4:	681b      	ldr	r3, [r3, #0]
     ec6:	220b      	movs	r2, #11
     ec8:	761a      	strb	r2, [r3, #24]
     eca:	765a      	strb	r2, [r3, #25]
	g_packet->seq = 0;
     ecc:	2200      	movs	r2, #0
     ece:	759a      	strb	r2, [r3, #22]
     ed0:	75da      	strb	r2, [r3, #23]
	
	return K_SENSOR_OK;
}
     ed2:	2000      	movs	r0, #0
     ed4:	4770      	bx	lr
     ed6:	46c0      	nop			; (mov r8, r8)
     ed8:	2000012c 	.word	0x2000012c

00000edc <sensor_init>:

uint8_t sensor_init()
{
     edc:	b510      	push	{r4, lr}
#elif KIW_SENSOR_TYPE == SENSOR_TYPE_UV_LIGHT
	e = Si1133_init();
#elif KIW_SENSOR_TYPE == SENSOR_TYPE_BODY_TEMP
	e = mrt311_init();
#elif KIW_SENSOR_TYPE == SENSOR_TYPE_TEMP_CALIB
	e = mrt311_init();
     ede:	4b02      	ldr	r3, [pc, #8]	; (ee8 <sensor_init+0xc>)
     ee0:	4798      	blx	r3
     ee2:	b2c0      	uxtb	r0, r0
#endif

	return e;
	
	
}
     ee4:	bd10      	pop	{r4, pc}
     ee6:	46c0      	nop			; (mov r8, r8)
     ee8:	00000a99 	.word	0x00000a99

00000eec <sensor_name>:
		const char* s =  "Kiwrious Heart Rate Sensor";
#else
		const char* s = "Kiwrious Sensor";
#endif

	return s;
     eec:	4800      	ldr	r0, [pc, #0]	; (ef0 <sensor_name+0x4>)
}
     eee:	4770      	bx	lr
     ef0:	0000211c 	.word	0x0000211c

00000ef4 <sensor_read>:


//Reads the sensor and copies the data to dest buffer, returns number of values written
uint16_t sensor_read(int16_t* dest)
{
     ef4:	b5f0      	push	{r4, r5, r6, r7, lr}
     ef6:	b087      	sub	sp, #28
     ef8:	0004      	movs	r4, r0
	dest[2] = object_raw;
	dest[3] = sensor_raw;
	return 8;
#elif KIW_SENSOR_TYPE == SENSOR_TYPE_TEMP_CALIB
		int16_t object, sensor, object_raw, sensor_raw;
		int8_t e = mrt311_read(&object, &sensor, &object_raw, &sensor_raw);
     efa:	2512      	movs	r5, #18
     efc:	446d      	add	r5, sp
     efe:	ae05      	add	r6, sp, #20
     f00:	ab04      	add	r3, sp, #16
     f02:	002a      	movs	r2, r5
     f04:	0031      	movs	r1, r6
     f06:	2016      	movs	r0, #22
     f08:	4468      	add	r0, sp
     f0a:	4f0a      	ldr	r7, [pc, #40]	; (f34 <sensor_read+0x40>)
     f0c:	47b8      	blx	r7
		
		float constants[3] = {
     f0e:	ab01      	add	r3, sp, #4
     f10:	469c      	mov	ip, r3
     f12:	4b09      	ldr	r3, [pc, #36]	; (f38 <sensor_read+0x44>)
     f14:	4662      	mov	r2, ip
     f16:	cb83      	ldmia	r3!, {r0, r1, r7}
     f18:	c283      	stmia	r2!, {r0, r1, r7}
			IR_CALIB_A,
			IR_CALIB_B,
			IR_CALIB_C };
			
		dest[0] = (int16_t)sensor;
     f1a:	2200      	movs	r2, #0
     f1c:	5eb3      	ldrsh	r3, [r6, r2]
     f1e:	8023      	strh	r3, [r4, #0]
		dest[1] = (int16_t) object_raw;
     f20:	882b      	ldrh	r3, [r5, #0]
     f22:	8063      	strh	r3, [r4, #2]
		
		memcpy((void*)&dest[2], (void*)constants, sizeof(constants));
     f24:	1d20      	adds	r0, r4, #4
     f26:	220c      	movs	r2, #12
     f28:	4661      	mov	r1, ip
     f2a:	4b04      	ldr	r3, [pc, #16]	; (f3c <sensor_read+0x48>)
     f2c:	4798      	blx	r3
		
	return 8;
#else	
	return 0; //No bytes written
#endif
}
     f2e:	2008      	movs	r0, #8
     f30:	b007      	add	sp, #28
     f32:	bdf0      	pop	{r4, r5, r6, r7, pc}
     f34:	00000b9d 	.word	0x00000b9d
     f38:	00002138 	.word	0x00002138
     f3c:	000020ed 	.word	0x000020ed

00000f40 <i2c_init>:
     f40:	b570      	push	{r4, r5, r6, lr}
     f42:	4b36      	ldr	r3, [pc, #216]	; (101c <i2c_init+0xdc>)
     f44:	2280      	movs	r2, #128	; 0x80
     f46:	0412      	lsls	r2, r2, #16
     f48:	615a      	str	r2, [r3, #20]
     f4a:	609a      	str	r2, [r3, #8]
     f4c:	2312      	movs	r3, #18
     f4e:	e004      	b.n	f5a <i2c_init+0x1a>
     f50:	4b32      	ldr	r3, [pc, #200]	; (101c <i2c_init+0xdc>)
     f52:	2280      	movs	r2, #128	; 0x80
     f54:	0412      	lsls	r2, r2, #16
     f56:	60da      	str	r2, [r3, #12]
     f58:	002b      	movs	r3, r5
     f5a:	1e5d      	subs	r5, r3, #1
     f5c:	b2ed      	uxtb	r5, r5
     f5e:	2b00      	cmp	r3, #0
     f60:	d008      	beq.n	f74 <i2c_init+0x34>
     f62:	4b2f      	ldr	r3, [pc, #188]	; (1020 <i2c_init+0xe0>)
     f64:	4798      	blx	r3
     f66:	0004      	movs	r4, r0
     f68:	4b2d      	ldr	r3, [pc, #180]	; (1020 <i2c_init+0xe0>)
     f6a:	4798      	blx	r3
     f6c:	1b00      	subs	r0, r0, r4
     f6e:	2804      	cmp	r0, #4
     f70:	d9fa      	bls.n	f68 <i2c_init+0x28>
     f72:	e7ed      	b.n	f50 <i2c_init+0x10>
     f74:	4a2b      	ldr	r2, [pc, #172]	; (1024 <i2c_init+0xe4>)
     f76:	6a11      	ldr	r1, [r2, #32]
     f78:	3308      	adds	r3, #8
     f7a:	430b      	orrs	r3, r1
     f7c:	6213      	str	r3, [r2, #32]
     f7e:	4b27      	ldr	r3, [pc, #156]	; (101c <i2c_init+0xdc>)
     f80:	2256      	movs	r2, #86	; 0x56
     f82:	5c99      	ldrb	r1, [r3, r2]
     f84:	2001      	movs	r0, #1
     f86:	4301      	orrs	r1, r0
     f88:	5499      	strb	r1, [r3, r2]
     f8a:	2157      	movs	r1, #87	; 0x57
     f8c:	5c5a      	ldrb	r2, [r3, r1]
     f8e:	4302      	orrs	r2, r0
     f90:	545a      	strb	r2, [r3, r1]
     f92:	223b      	movs	r2, #59	; 0x3b
     f94:	3935      	subs	r1, #53	; 0x35
     f96:	5499      	strb	r1, [r3, r2]
     f98:	4a23      	ldr	r2, [pc, #140]	; (1028 <i2c_init+0xe8>)
     f9a:	6811      	ldr	r1, [r2, #0]
     f9c:	2301      	movs	r3, #1
     f9e:	430b      	orrs	r3, r1
     fa0:	6013      	str	r3, [r2, #0]
     fa2:	4b21      	ldr	r3, [pc, #132]	; (1028 <i2c_init+0xe8>)
     fa4:	69db      	ldr	r3, [r3, #28]
     fa6:	07db      	lsls	r3, r3, #31
     fa8:	d4fb      	bmi.n	fa2 <i2c_init+0x62>
     faa:	4b1f      	ldr	r3, [pc, #124]	; (1028 <i2c_init+0xe8>)
     fac:	2214      	movs	r2, #20
     fae:	601a      	str	r2, [r3, #0]
     fb0:	320c      	adds	r2, #12
     fb2:	60da      	str	r2, [r3, #12]
     fb4:	6819      	ldr	r1, [r3, #0]
     fb6:	3a1e      	subs	r2, #30
     fb8:	430a      	orrs	r2, r1
     fba:	601a      	str	r2, [r3, #0]
     fbc:	4b1a      	ldr	r3, [pc, #104]	; (1028 <i2c_init+0xe8>)
     fbe:	69db      	ldr	r3, [r3, #28]
     fc0:	079b      	lsls	r3, r3, #30
     fc2:	d4fb      	bmi.n	fbc <i2c_init+0x7c>
     fc4:	4b18      	ldr	r3, [pc, #96]	; (1028 <i2c_init+0xe8>)
     fc6:	8b5b      	ldrh	r3, [r3, #26]
     fc8:	069b      	lsls	r3, r3, #26
     fca:	0f9b      	lsrs	r3, r3, #30
     fcc:	d102      	bne.n	fd4 <i2c_init+0x94>
     fce:	4b16      	ldr	r3, [pc, #88]	; (1028 <i2c_init+0xe8>)
     fd0:	2210      	movs	r2, #16
     fd2:	835a      	strh	r2, [r3, #26]
     fd4:	4b14      	ldr	r3, [pc, #80]	; (1028 <i2c_init+0xe8>)
     fd6:	69db      	ldr	r3, [r3, #28]
     fd8:	075b      	lsls	r3, r3, #29
     fda:	d4fb      	bmi.n	fd4 <i2c_init+0x94>
     fdc:	4b12      	ldr	r3, [pc, #72]	; (1028 <i2c_init+0xe8>)
     fde:	7d9a      	ldrb	r2, [r3, #22]
     fe0:	2101      	movs	r1, #1
     fe2:	430a      	orrs	r2, r1
     fe4:	759a      	strb	r2, [r3, #22]
     fe6:	7d9a      	ldrb	r2, [r3, #22]
     fe8:	2102      	movs	r1, #2
     fea:	430a      	orrs	r2, r1
     fec:	759a      	strb	r2, [r3, #22]
     fee:	7d99      	ldrb	r1, [r3, #22]
     ff0:	2280      	movs	r2, #128	; 0x80
     ff2:	4252      	negs	r2, r2
     ff4:	430a      	orrs	r2, r1
     ff6:	759a      	strb	r2, [r3, #22]
     ff8:	4b0c      	ldr	r3, [pc, #48]	; (102c <i2c_init+0xec>)
     ffa:	2280      	movs	r2, #128	; 0x80
     ffc:	00d2      	lsls	r2, r2, #3
     ffe:	601a      	str	r2, [r3, #0]
    1000:	20c2      	movs	r0, #194	; 0xc2
    1002:	0080      	lsls	r0, r0, #2
    1004:	581a      	ldr	r2, [r3, r0]
    1006:	490a      	ldr	r1, [pc, #40]	; (1030 <i2c_init+0xf0>)
    1008:	4011      	ands	r1, r2
    100a:	2280      	movs	r2, #128	; 0x80
    100c:	03d2      	lsls	r2, r2, #15
    100e:	430a      	orrs	r2, r1
    1010:	501a      	str	r2, [r3, r0]
    1012:	2201      	movs	r2, #1
    1014:	4b07      	ldr	r3, [pc, #28]	; (1034 <i2c_init+0xf4>)
    1016:	701a      	strb	r2, [r3, #0]
    1018:	bd70      	pop	{r4, r5, r6, pc}
    101a:	46c0      	nop			; (mov r8, r8)
    101c:	41004400 	.word	0x41004400
    1020:	00000d45 	.word	0x00000d45
    1024:	40000400 	.word	0x40000400
    1028:	42000c00 	.word	0x42000c00
    102c:	e000e100 	.word	0xe000e100
    1030:	ff00ffff 	.word	0xff00ffff
    1034:	20000130 	.word	0x20000130

00001038 <i2c_cmd>:
    1038:	4b09      	ldr	r3, [pc, #36]	; (1060 <i2c_cmd+0x28>)
    103a:	685b      	ldr	r3, [r3, #4]
    103c:	2800      	cmp	r0, #0
    103e:	d00a      	beq.n	1056 <i2c_cmd+0x1e>
    1040:	4a08      	ldr	r2, [pc, #32]	; (1064 <i2c_cmd+0x2c>)
    1042:	4013      	ands	r3, r2
    1044:	0409      	lsls	r1, r1, #16
    1046:	4319      	orrs	r1, r3
    1048:	4b05      	ldr	r3, [pc, #20]	; (1060 <i2c_cmd+0x28>)
    104a:	6059      	str	r1, [r3, #4]
    104c:	4b04      	ldr	r3, [pc, #16]	; (1060 <i2c_cmd+0x28>)
    104e:	69db      	ldr	r3, [r3, #28]
    1050:	075b      	lsls	r3, r3, #29
    1052:	d4fb      	bmi.n	104c <i2c_cmd+0x14>
    1054:	4770      	bx	lr
    1056:	2280      	movs	r2, #128	; 0x80
    1058:	02d2      	lsls	r2, r2, #11
    105a:	4313      	orrs	r3, r2
    105c:	e7f2      	b.n	1044 <i2c_cmd+0xc>
    105e:	46c0      	nop			; (mov r8, r8)
    1060:	42000c00 	.word	0x42000c00
    1064:	fffbffff 	.word	0xfffbffff

00001068 <SERCOM1_Handler>:
    1068:	b5f8      	push	{r3, r4, r5, r6, r7, lr}
    106a:	4b84      	ldr	r3, [pc, #528]	; (127c <SERCOM1_Handler+0x214>)
    106c:	7e1c      	ldrb	r4, [r3, #24]
    106e:	b2e4      	uxtb	r4, r4
    1070:	8b5d      	ldrh	r5, [r3, #26]
    1072:	b2ed      	uxtb	r5, r5
    1074:	b26b      	sxtb	r3, r5
    1076:	2b00      	cmp	r3, #0
    1078:	da40      	bge.n	10fc <SERCOM1_Handler+0x94>
    107a:	07e3      	lsls	r3, r4, #31
    107c:	d50d      	bpl.n	109a <SERCOM1_Handler+0x32>
    107e:	4b80      	ldr	r3, [pc, #512]	; (1280 <SERCOM1_Handler+0x218>)
    1080:	781b      	ldrb	r3, [r3, #0]
    1082:	b2db      	uxtb	r3, r3
    1084:	2b02      	cmp	r3, #2
    1086:	d043      	beq.n	1110 <SERCOM1_Handler+0xa8>
    1088:	2b04      	cmp	r3, #4
    108a:	d074      	beq.n	1176 <SERCOM1_Handler+0x10e>
    108c:	2103      	movs	r1, #3
    108e:	2000      	movs	r0, #0
    1090:	4b7c      	ldr	r3, [pc, #496]	; (1284 <SERCOM1_Handler+0x21c>)
    1092:	4798      	blx	r3
    1094:	4b7a      	ldr	r3, [pc, #488]	; (1280 <SERCOM1_Handler+0x218>)
    1096:	2201      	movs	r2, #1
    1098:	701a      	strb	r2, [r3, #0]
    109a:	07a3      	lsls	r3, r4, #30
    109c:	d400      	bmi.n	10a0 <SERCOM1_Handler+0x38>
    109e:	e0ea      	b.n	1276 <SERCOM1_Handler+0x20e>
    10a0:	4b77      	ldr	r3, [pc, #476]	; (1280 <SERCOM1_Handler+0x218>)
    10a2:	781b      	ldrb	r3, [r3, #0]
    10a4:	b2db      	uxtb	r3, r3
    10a6:	2b03      	cmp	r3, #3
    10a8:	d100      	bne.n	10ac <SERCOM1_Handler+0x44>
    10aa:	e0a0      	b.n	11ee <SERCOM1_Handler+0x186>
    10ac:	2b05      	cmp	r3, #5
    10ae:	d000      	beq.n	10b2 <SERCOM1_Handler+0x4a>
    10b0:	e0da      	b.n	1268 <SERCOM1_Handler+0x200>
    10b2:	4b73      	ldr	r3, [pc, #460]	; (1280 <SERCOM1_Handler+0x218>)
    10b4:	2227      	movs	r2, #39	; 0x27
    10b6:	5c9a      	ldrb	r2, [r3, r2]
    10b8:	b2d2      	uxtb	r2, r2
    10ba:	2128      	movs	r1, #40	; 0x28
    10bc:	5c5b      	ldrb	r3, [r3, r1]
    10be:	b2db      	uxtb	r3, r3
    10c0:	429a      	cmp	r2, r3
    10c2:	d300      	bcc.n	10c6 <SERCOM1_Handler+0x5e>
    10c4:	e08f      	b.n	11e6 <SERCOM1_Handler+0x17e>
    10c6:	4b6e      	ldr	r3, [pc, #440]	; (1280 <SERCOM1_Handler+0x218>)
    10c8:	2527      	movs	r5, #39	; 0x27
    10ca:	5d5a      	ldrb	r2, [r3, r5]
    10cc:	2028      	movs	r0, #40	; 0x28
    10ce:	496b      	ldr	r1, [pc, #428]	; (127c <SERCOM1_Handler+0x214>)
    10d0:	5c09      	ldrb	r1, [r1, r0]
    10d2:	b2c9      	uxtb	r1, r1
    10d4:	189a      	adds	r2, r3, r2
    10d6:	262c      	movs	r6, #44	; 0x2c
    10d8:	5591      	strb	r1, [r2, r6]
    10da:	5d5a      	ldrb	r2, [r3, r5]
    10dc:	b2d2      	uxtb	r2, r2
    10de:	5c1b      	ldrb	r3, [r3, r0]
    10e0:	3b01      	subs	r3, #1
    10e2:	429a      	cmp	r2, r3
    10e4:	d077      	beq.n	11d6 <SERCOM1_Handler+0x16e>
    10e6:	2102      	movs	r1, #2
    10e8:	2001      	movs	r0, #1
    10ea:	4b66      	ldr	r3, [pc, #408]	; (1284 <SERCOM1_Handler+0x21c>)
    10ec:	4798      	blx	r3
    10ee:	4964      	ldr	r1, [pc, #400]	; (1280 <SERCOM1_Handler+0x218>)
    10f0:	2227      	movs	r2, #39	; 0x27
    10f2:	5c8b      	ldrb	r3, [r1, r2]
    10f4:	3301      	adds	r3, #1
    10f6:	b2db      	uxtb	r3, r3
    10f8:	548b      	strb	r3, [r1, r2]
    10fa:	e0bc      	b.n	1276 <SERCOM1_Handler+0x20e>
    10fc:	4b60      	ldr	r3, [pc, #384]	; (1280 <SERCOM1_Handler+0x218>)
    10fe:	2201      	movs	r2, #1
    1100:	701a      	strb	r2, [r3, #0]
    1102:	2103      	movs	r1, #3
    1104:	2000      	movs	r0, #0
    1106:	4b5f      	ldr	r3, [pc, #380]	; (1284 <SERCOM1_Handler+0x21c>)
    1108:	4798      	blx	r3
    110a:	4b5c      	ldr	r3, [pc, #368]	; (127c <SERCOM1_Handler+0x214>)
    110c:	761c      	strb	r4, [r3, #24]
    110e:	e0b4      	b.n	127a <SERCOM1_Handler+0x212>
    1110:	237b      	movs	r3, #123	; 0x7b
    1112:	002a      	movs	r2, r5
    1114:	439a      	bics	r2, r3
    1116:	2a80      	cmp	r2, #128	; 0x80
    1118:	d005      	beq.n	1126 <SERCOM1_Handler+0xbe>
    111a:	076b      	lsls	r3, r5, #29
    111c:	d422      	bmi.n	1164 <SERCOM1_Handler+0xfc>
    111e:	4b58      	ldr	r3, [pc, #352]	; (1280 <SERCOM1_Handler+0x218>)
    1120:	2201      	movs	r2, #1
    1122:	701a      	strb	r2, [r3, #0]
    1124:	e7b9      	b.n	109a <SERCOM1_Handler+0x32>
    1126:	4b56      	ldr	r3, [pc, #344]	; (1280 <SERCOM1_Handler+0x218>)
    1128:	2204      	movs	r2, #4
    112a:	701a      	strb	r2, [r3, #0]
    112c:	3221      	adds	r2, #33	; 0x21
    112e:	5c9b      	ldrb	r3, [r3, r2]
    1130:	2b00      	cmp	r3, #0
    1132:	d00d      	beq.n	1150 <SERCOM1_Handler+0xe8>
    1134:	4a52      	ldr	r2, [pc, #328]	; (1280 <SERCOM1_Handler+0x218>)
    1136:	2124      	movs	r1, #36	; 0x24
    1138:	5c53      	ldrb	r3, [r2, r1]
    113a:	18d3      	adds	r3, r2, r3
    113c:	791b      	ldrb	r3, [r3, #4]
    113e:	b2db      	uxtb	r3, r3
    1140:	4e4e      	ldr	r6, [pc, #312]	; (127c <SERCOM1_Handler+0x214>)
    1142:	2028      	movs	r0, #40	; 0x28
    1144:	5433      	strb	r3, [r6, r0]
    1146:	5c53      	ldrb	r3, [r2, r1]
    1148:	3301      	adds	r3, #1
    114a:	b2db      	uxtb	r3, r3
    114c:	5453      	strb	r3, [r2, r1]
    114e:	e7a4      	b.n	109a <SERCOM1_Handler+0x32>
    1150:	4e4b      	ldr	r6, [pc, #300]	; (1280 <SERCOM1_Handler+0x218>)
    1152:	2701      	movs	r7, #1
    1154:	3326      	adds	r3, #38	; 0x26
    1156:	54f7      	strb	r7, [r6, r3]
    1158:	2103      	movs	r1, #3
    115a:	2000      	movs	r0, #0
    115c:	4b49      	ldr	r3, [pc, #292]	; (1284 <SERCOM1_Handler+0x21c>)
    115e:	4798      	blx	r3
    1160:	7037      	strb	r7, [r6, #0]
    1162:	e7e7      	b.n	1134 <SERCOM1_Handler+0xcc>
    1164:	2103      	movs	r1, #3
    1166:	2000      	movs	r0, #0
    1168:	4b46      	ldr	r3, [pc, #280]	; (1284 <SERCOM1_Handler+0x21c>)
    116a:	4798      	blx	r3
    116c:	4a44      	ldr	r2, [pc, #272]	; (1280 <SERCOM1_Handler+0x218>)
    116e:	2326      	movs	r3, #38	; 0x26
    1170:	2100      	movs	r1, #0
    1172:	54d1      	strb	r1, [r2, r3]
    1174:	e7d3      	b.n	111e <SERCOM1_Handler+0xb6>
    1176:	237b      	movs	r3, #123	; 0x7b
    1178:	002a      	movs	r2, r5
    117a:	439a      	bics	r2, r3
    117c:	2a80      	cmp	r2, #128	; 0x80
    117e:	d18c      	bne.n	109a <SERCOM1_Handler+0x32>
    1180:	4b3f      	ldr	r3, [pc, #252]	; (1280 <SERCOM1_Handler+0x218>)
    1182:	2224      	movs	r2, #36	; 0x24
    1184:	5c9a      	ldrb	r2, [r3, r2]
    1186:	b2d2      	uxtb	r2, r2
    1188:	2125      	movs	r1, #37	; 0x25
    118a:	5c5b      	ldrb	r3, [r3, r1]
    118c:	b2db      	uxtb	r3, r3
    118e:	429a      	cmp	r2, r3
    1190:	d20d      	bcs.n	11ae <SERCOM1_Handler+0x146>
    1192:	4a3b      	ldr	r2, [pc, #236]	; (1280 <SERCOM1_Handler+0x218>)
    1194:	3901      	subs	r1, #1
    1196:	5c53      	ldrb	r3, [r2, r1]
    1198:	18d3      	adds	r3, r2, r3
    119a:	791b      	ldrb	r3, [r3, #4]
    119c:	b2db      	uxtb	r3, r3
    119e:	4e37      	ldr	r6, [pc, #220]	; (127c <SERCOM1_Handler+0x214>)
    11a0:	2028      	movs	r0, #40	; 0x28
    11a2:	5433      	strb	r3, [r6, r0]
    11a4:	5c53      	ldrb	r3, [r2, r1]
    11a6:	3301      	adds	r3, #1
    11a8:	b2db      	uxtb	r3, r3
    11aa:	5453      	strb	r3, [r2, r1]
    11ac:	e775      	b.n	109a <SERCOM1_Handler+0x32>
    11ae:	4b34      	ldr	r3, [pc, #208]	; (1280 <SERCOM1_Handler+0x218>)
    11b0:	785b      	ldrb	r3, [r3, #1]
    11b2:	2b00      	cmp	r3, #0
    11b4:	d007      	beq.n	11c6 <SERCOM1_Handler+0x15e>
    11b6:	2101      	movs	r1, #1
    11b8:	2000      	movs	r0, #0
    11ba:	4b32      	ldr	r3, [pc, #200]	; (1284 <SERCOM1_Handler+0x21c>)
    11bc:	4798      	blx	r3
    11be:	4b30      	ldr	r3, [pc, #192]	; (1280 <SERCOM1_Handler+0x218>)
    11c0:	2206      	movs	r2, #6
    11c2:	701a      	strb	r2, [r3, #0]
    11c4:	e769      	b.n	109a <SERCOM1_Handler+0x32>
    11c6:	2103      	movs	r1, #3
    11c8:	2000      	movs	r0, #0
    11ca:	4b2e      	ldr	r3, [pc, #184]	; (1284 <SERCOM1_Handler+0x21c>)
    11cc:	4798      	blx	r3
    11ce:	4b2c      	ldr	r3, [pc, #176]	; (1280 <SERCOM1_Handler+0x218>)
    11d0:	2201      	movs	r2, #1
    11d2:	701a      	strb	r2, [r3, #0]
    11d4:	e761      	b.n	109a <SERCOM1_Handler+0x32>
    11d6:	2103      	movs	r1, #3
    11d8:	2000      	movs	r0, #0
    11da:	4b2a      	ldr	r3, [pc, #168]	; (1284 <SERCOM1_Handler+0x21c>)
    11dc:	4798      	blx	r3
    11de:	4b28      	ldr	r3, [pc, #160]	; (1280 <SERCOM1_Handler+0x218>)
    11e0:	2201      	movs	r2, #1
    11e2:	701a      	strb	r2, [r3, #0]
    11e4:	e047      	b.n	1276 <SERCOM1_Handler+0x20e>
    11e6:	4b26      	ldr	r3, [pc, #152]	; (1280 <SERCOM1_Handler+0x218>)
    11e8:	2201      	movs	r2, #1
    11ea:	701a      	strb	r2, [r3, #0]
    11ec:	e043      	b.n	1276 <SERCOM1_Handler+0x20e>
    11ee:	237b      	movs	r3, #123	; 0x7b
    11f0:	439d      	bics	r5, r3
    11f2:	2d80      	cmp	r5, #128	; 0x80
    11f4:	d12e      	bne.n	1254 <SERCOM1_Handler+0x1ec>
    11f6:	4b22      	ldr	r3, [pc, #136]	; (1280 <SERCOM1_Handler+0x218>)
    11f8:	2227      	movs	r2, #39	; 0x27
    11fa:	5c9a      	ldrb	r2, [r3, r2]
    11fc:	b2d2      	uxtb	r2, r2
    11fe:	2128      	movs	r1, #40	; 0x28
    1200:	5c5b      	ldrb	r3, [r3, r1]
    1202:	3b01      	subs	r3, #1
    1204:	429a      	cmp	r2, r3
    1206:	da14      	bge.n	1232 <SERCOM1_Handler+0x1ca>
    1208:	4d1d      	ldr	r5, [pc, #116]	; (1280 <SERCOM1_Handler+0x218>)
    120a:	2627      	movs	r6, #39	; 0x27
    120c:	5dab      	ldrb	r3, [r5, r6]
    120e:	491b      	ldr	r1, [pc, #108]	; (127c <SERCOM1_Handler+0x214>)
    1210:	2228      	movs	r2, #40	; 0x28
    1212:	5c8a      	ldrb	r2, [r1, r2]
    1214:	b2d2      	uxtb	r2, r2
    1216:	18eb      	adds	r3, r5, r3
    1218:	212c      	movs	r1, #44	; 0x2c
    121a:	545a      	strb	r2, [r3, r1]
    121c:	392a      	subs	r1, #42	; 0x2a
    121e:	2001      	movs	r0, #1
    1220:	4b18      	ldr	r3, [pc, #96]	; (1284 <SERCOM1_Handler+0x21c>)
    1222:	4798      	blx	r3
    1224:	5dab      	ldrb	r3, [r5, r6]
    1226:	3301      	adds	r3, #1
    1228:	b2db      	uxtb	r3, r3
    122a:	55ab      	strb	r3, [r5, r6]
    122c:	2305      	movs	r3, #5
    122e:	702b      	strb	r3, [r5, #0]
    1230:	e021      	b.n	1276 <SERCOM1_Handler+0x20e>
    1232:	4d13      	ldr	r5, [pc, #76]	; (1280 <SERCOM1_Handler+0x218>)
    1234:	2327      	movs	r3, #39	; 0x27
    1236:	5ceb      	ldrb	r3, [r5, r3]
    1238:	4910      	ldr	r1, [pc, #64]	; (127c <SERCOM1_Handler+0x214>)
    123a:	2228      	movs	r2, #40	; 0x28
    123c:	5c8a      	ldrb	r2, [r1, r2]
    123e:	b2d2      	uxtb	r2, r2
    1240:	18eb      	adds	r3, r5, r3
    1242:	212c      	movs	r1, #44	; 0x2c
    1244:	545a      	strb	r2, [r3, r1]
    1246:	3929      	subs	r1, #41	; 0x29
    1248:	2000      	movs	r0, #0
    124a:	4b0e      	ldr	r3, [pc, #56]	; (1284 <SERCOM1_Handler+0x21c>)
    124c:	4798      	blx	r3
    124e:	2301      	movs	r3, #1
    1250:	702b      	strb	r3, [r5, #0]
    1252:	e010      	b.n	1276 <SERCOM1_Handler+0x20e>
    1254:	2103      	movs	r1, #3
    1256:	2000      	movs	r0, #0
    1258:	4b0a      	ldr	r3, [pc, #40]	; (1284 <SERCOM1_Handler+0x21c>)
    125a:	4798      	blx	r3
    125c:	4b08      	ldr	r3, [pc, #32]	; (1280 <SERCOM1_Handler+0x218>)
    125e:	2201      	movs	r2, #1
    1260:	2126      	movs	r1, #38	; 0x26
    1262:	545a      	strb	r2, [r3, r1]
    1264:	701a      	strb	r2, [r3, #0]
    1266:	e006      	b.n	1276 <SERCOM1_Handler+0x20e>
    1268:	2103      	movs	r1, #3
    126a:	2000      	movs	r0, #0
    126c:	4b05      	ldr	r3, [pc, #20]	; (1284 <SERCOM1_Handler+0x21c>)
    126e:	4798      	blx	r3
    1270:	4b03      	ldr	r3, [pc, #12]	; (1280 <SERCOM1_Handler+0x218>)
    1272:	2201      	movs	r2, #1
    1274:	701a      	strb	r2, [r3, #0]
    1276:	4b01      	ldr	r3, [pc, #4]	; (127c <SERCOM1_Handler+0x214>)
    1278:	761c      	strb	r4, [r3, #24]
    127a:	bdf8      	pop	{r3, r4, r5, r6, r7, pc}
    127c:	42000c00 	.word	0x42000c00
    1280:	20000130 	.word	0x20000130
    1284:	00001039 	.word	0x00001039

00001288 <dfu_requestHandler>:
    1288:	b510      	push	{r4, lr}
    128a:	b082      	sub	sp, #8
    128c:	7843      	ldrb	r3, [r0, #1]
    128e:	466a      	mov	r2, sp
    1290:	2100      	movs	r1, #0
    1292:	71d1      	strb	r1, [r2, #7]
    1294:	2b03      	cmp	r3, #3
    1296:	d013      	beq.n	12c0 <dfu_requestHandler+0x38>
    1298:	2b05      	cmp	r3, #5
    129a:	d018      	beq.n	12ce <dfu_requestHandler+0x46>
    129c:	2b00      	cmp	r3, #0
    129e:	d001      	beq.n	12a4 <dfu_requestHandler+0x1c>
    12a0:	b002      	add	sp, #8
    12a2:	bd10      	pop	{r4, pc}
    12a4:	4a0e      	ldr	r2, [pc, #56]	; (12e0 <dfu_requestHandler+0x58>)
    12a6:	8913      	ldrh	r3, [r2, #8]
    12a8:	2101      	movs	r1, #1
    12aa:	430b      	orrs	r3, r1
    12ac:	8113      	strh	r3, [r2, #8]
    12ae:	4b0d      	ldr	r3, [pc, #52]	; (12e4 <dfu_requestHandler+0x5c>)
    12b0:	4a0d      	ldr	r2, [pc, #52]	; (12e8 <dfu_requestHandler+0x60>)
    12b2:	805a      	strh	r2, [r3, #2]
    12b4:	4a0d      	ldr	r2, [pc, #52]	; (12ec <dfu_requestHandler+0x64>)
    12b6:	7813      	ldrb	r3, [r2, #0]
    12b8:	2102      	movs	r1, #2
    12ba:	430b      	orrs	r3, r1
    12bc:	7013      	strb	r3, [r2, #0]
    12be:	e7fe      	b.n	12be <dfu_requestHandler+0x36>
    12c0:	2301      	movs	r3, #1
    12c2:	2206      	movs	r2, #6
    12c4:	490a      	ldr	r1, [pc, #40]	; (12f0 <dfu_requestHandler+0x68>)
    12c6:	2080      	movs	r0, #128	; 0x80
    12c8:	4c0a      	ldr	r4, [pc, #40]	; (12f4 <dfu_requestHandler+0x6c>)
    12ca:	47a0      	blx	r4
    12cc:	e7e8      	b.n	12a0 <dfu_requestHandler+0x18>
    12ce:	2301      	movs	r3, #1
    12d0:	2201      	movs	r2, #1
    12d2:	4669      	mov	r1, sp
    12d4:	3107      	adds	r1, #7
    12d6:	2080      	movs	r0, #128	; 0x80
    12d8:	4c06      	ldr	r4, [pc, #24]	; (12f4 <dfu_requestHandler+0x6c>)
    12da:	47a0      	blx	r4
    12dc:	e7e0      	b.n	12a0 <dfu_requestHandler+0x18>
    12de:	46c0      	nop			; (mov r8, r8)
    12e0:	41005000 	.word	0x41005000
    12e4:	40000c00 	.word	0x40000c00
    12e8:	00004003 	.word	0x00004003
    12ec:	40001000 	.word	0x40001000
    12f0:	20000000 	.word	0x20000000
    12f4:	00001d0d 	.word	0x00001d0d

000012f8 <webusb_getUrl>:
    12f8:	4b02      	ldr	r3, [pc, #8]	; (1304 <webusb_getUrl+0xc>)
    12fa:	001a      	movs	r2, r3
    12fc:	3208      	adds	r2, #8
    12fe:	6002      	str	r2, [r0, #0]
    1300:	7a18      	ldrb	r0, [r3, #8]
    1302:	4770      	bx	lr
    1304:	20000000 	.word	0x20000000

00001308 <msft_getDescSet>:
    1308:	4b01      	ldr	r3, [pc, #4]	; (1310 <msft_getDescSet+0x8>)
    130a:	6003      	str	r3, [r0, #0]
    130c:	20b2      	movs	r0, #178	; 0xb2
    130e:	4770      	bx	lr
    1310:	00002144 	.word	0x00002144

00001314 <usb_cb_get_descriptor>:
    1314:	b510      	push	{r4, lr}
    1316:	0014      	movs	r4, r2
    1318:	2802      	cmp	r0, #2
    131a:	d036      	beq.n	138a <usb_cb_get_descriptor+0x76>
    131c:	d907      	bls.n	132e <usb_cb_get_descriptor+0x1a>
    131e:	2803      	cmp	r0, #3
    1320:	d012      	beq.n	1348 <usb_cb_get_descriptor+0x34>
    1322:	280f      	cmp	r0, #15
    1324:	d10d      	bne.n	1342 <usb_cb_get_descriptor+0x2e>
    1326:	2039      	movs	r0, #57	; 0x39
    1328:	4b1a      	ldr	r3, [pc, #104]	; (1394 <usb_cb_get_descriptor+0x80>)
    132a:	3378      	adds	r3, #120	; 0x78
    132c:	e007      	b.n	133e <usb_cb_get_descriptor+0x2a>
    132e:	2801      	cmp	r0, #1
    1330:	d103      	bne.n	133a <usb_cb_get_descriptor+0x26>
    1332:	2012      	movs	r0, #18
    1334:	4b17      	ldr	r3, [pc, #92]	; (1394 <usb_cb_get_descriptor+0x80>)
    1336:	3304      	adds	r3, #4
    1338:	e001      	b.n	133e <usb_cb_get_descriptor+0x2a>
    133a:	2000      	movs	r0, #0
    133c:	2300      	movs	r3, #0
    133e:	6023      	str	r3, [r4, #0]
    1340:	bd10      	pop	{r4, pc}
    1342:	2000      	movs	r0, #0
    1344:	2300      	movs	r3, #0
    1346:	e7fa      	b.n	133e <usb_cb_get_descriptor+0x2a>
    1348:	2904      	cmp	r1, #4
    134a:	d817      	bhi.n	137c <usb_cb_get_descriptor+0x68>
    134c:	0089      	lsls	r1, r1, #2
    134e:	4b12      	ldr	r3, [pc, #72]	; (1398 <usb_cb_get_descriptor+0x84>)
    1350:	585b      	ldr	r3, [r3, r1]
    1352:	469f      	mov	pc, r3
    1354:	4811      	ldr	r0, [pc, #68]	; (139c <usb_cb_get_descriptor+0x88>)
    1356:	4b12      	ldr	r3, [pc, #72]	; (13a0 <usb_cb_get_descriptor+0x8c>)
    1358:	4798      	blx	r3
    135a:	0003      	movs	r3, r0
    135c:	e013      	b.n	1386 <usb_cb_get_descriptor+0x72>
    135e:	4b11      	ldr	r3, [pc, #68]	; (13a4 <usb_cb_get_descriptor+0x90>)
    1360:	4798      	blx	r3
    1362:	4b0f      	ldr	r3, [pc, #60]	; (13a0 <usb_cb_get_descriptor+0x8c>)
    1364:	4798      	blx	r3
    1366:	0003      	movs	r3, r0
    1368:	e00d      	b.n	1386 <usb_cb_get_descriptor+0x72>
    136a:	4b0f      	ldr	r3, [pc, #60]	; (13a8 <usb_cb_get_descriptor+0x94>)
    136c:	4798      	blx	r3
    136e:	0003      	movs	r3, r0
    1370:	e009      	b.n	1386 <usb_cb_get_descriptor+0x72>
    1372:	480e      	ldr	r0, [pc, #56]	; (13ac <usb_cb_get_descriptor+0x98>)
    1374:	4b0a      	ldr	r3, [pc, #40]	; (13a0 <usb_cb_get_descriptor+0x8c>)
    1376:	4798      	blx	r3
    1378:	0003      	movs	r3, r0
    137a:	e004      	b.n	1386 <usb_cb_get_descriptor+0x72>
    137c:	2300      	movs	r3, #0
    137e:	6013      	str	r3, [r2, #0]
    1380:	2000      	movs	r0, #0
    1382:	e7dd      	b.n	1340 <usb_cb_get_descriptor+0x2c>
    1384:	4b03      	ldr	r3, [pc, #12]	; (1394 <usb_cb_get_descriptor+0x80>)
    1386:	7818      	ldrb	r0, [r3, #0]
    1388:	e7d9      	b.n	133e <usb_cb_get_descriptor+0x2a>
    138a:	2060      	movs	r0, #96	; 0x60
    138c:	4b01      	ldr	r3, [pc, #4]	; (1394 <usb_cb_get_descriptor+0x80>)
    138e:	3318      	adds	r3, #24
    1390:	e7d5      	b.n	133e <usb_cb_get_descriptor+0x2a>
    1392:	46c0      	nop			; (mov r8, r8)
    1394:	0000220c 	.word	0x0000220c
    1398:	000021f8 	.word	0x000021f8
    139c:	000022c0 	.word	0x000022c0
    13a0:	00001a49 	.word	0x00001a49
    13a4:	00000eed 	.word	0x00000eed
    13a8:	00001f71 	.word	0x00001f71
    13ac:	000022cc 	.word	0x000022cc

000013b0 <usb_cb_reset>:
    13b0:	4770      	bx	lr
	...

000013b4 <usb_cb_set_configuration>:
    13b4:	b510      	push	{r4, lr}
    13b6:	2801      	cmp	r0, #1
    13b8:	d901      	bls.n	13be <usb_cb_set_configuration+0xa>
    13ba:	2000      	movs	r0, #0
    13bc:	bd10      	pop	{r4, pc}
    13be:	4b02      	ldr	r3, [pc, #8]	; (13c8 <usb_cb_set_configuration+0x14>)
    13c0:	4798      	blx	r3
    13c2:	2001      	movs	r0, #1
    13c4:	e7fa      	b.n	13bc <usb_cb_set_configuration+0x8>
    13c6:	46c0      	nop			; (mov r8, r8)
    13c8:	00001541 	.word	0x00001541

000013cc <req_gpio>:
    13cc:	b510      	push	{r4, lr}
    13ce:	4b03      	ldr	r3, [pc, #12]	; (13dc <req_gpio+0x10>)
    13d0:	4798      	blx	r3
    13d2:	2000      	movs	r0, #0
    13d4:	4b02      	ldr	r3, [pc, #8]	; (13e0 <req_gpio+0x14>)
    13d6:	4798      	blx	r3
    13d8:	bd10      	pop	{r4, pc}
    13da:	46c0      	nop			; (mov r8, r8)
    13dc:	00001e05 	.word	0x00001e05
    13e0:	00001e4d 	.word	0x00001e4d

000013e4 <req_info>:
    13e4:	b510      	push	{r4, lr}
    13e6:	2000      	movs	r0, #0
    13e8:	4b01      	ldr	r3, [pc, #4]	; (13f0 <req_info+0xc>)
    13ea:	4798      	blx	r3
    13ec:	bd10      	pop	{r4, pc}
    13ee:	46c0      	nop			; (mov r8, r8)
    13f0:	00001e4d 	.word	0x00001e4d

000013f4 <req_boot>:
    13f4:	b510      	push	{r4, lr}
    13f6:	4b03      	ldr	r3, [pc, #12]	; (1404 <req_boot+0x10>)
    13f8:	4798      	blx	r3
    13fa:	2000      	movs	r0, #0
    13fc:	4b02      	ldr	r3, [pc, #8]	; (1408 <req_boot+0x14>)
    13fe:	4798      	blx	r3
    1400:	bd10      	pop	{r4, pc}
    1402:	46c0      	nop			; (mov r8, r8)
    1404:	00001e05 	.word	0x00001e05
    1408:	00001e4d 	.word	0x00001e4d

0000140c <req_reset>:
    140c:	b510      	push	{r4, lr}
    140e:	4b03      	ldr	r3, [pc, #12]	; (141c <req_reset+0x10>)
    1410:	4798      	blx	r3
    1412:	2000      	movs	r0, #0
    1414:	4b02      	ldr	r3, [pc, #8]	; (1420 <req_reset+0x14>)
    1416:	4798      	blx	r3
    1418:	bd10      	pop	{r4, pc}
    141a:	46c0      	nop			; (mov r8, r8)
    141c:	00001e05 	.word	0x00001e05
    1420:	00001e4d 	.word	0x00001e4d

00001424 <req_boot_status>:
    1424:	b510      	push	{r4, lr}
    1426:	4b04      	ldr	r3, [pc, #16]	; (1438 <req_boot_status+0x14>)
    1428:	2200      	movs	r2, #0
    142a:	701a      	strb	r2, [r3, #0]
    142c:	4b03      	ldr	r3, [pc, #12]	; (143c <req_boot_status+0x18>)
    142e:	4798      	blx	r3
    1430:	2000      	movs	r0, #0
    1432:	4b03      	ldr	r3, [pc, #12]	; (1440 <req_boot_status+0x1c>)
    1434:	4798      	blx	r3
    1436:	bd10      	pop	{r4, pc}
    1438:	200003b4 	.word	0x200003b4
    143c:	00001e05 	.word	0x00001e05
    1440:	00001e4d 	.word	0x00001e4d

00001444 <usb_cb_control_setup>:
    1444:	b510      	push	{r4, lr}
    1446:	4b18      	ldr	r3, [pc, #96]	; (14a8 <usb_cb_control_setup+0x64>)
    1448:	781b      	ldrb	r3, [r3, #0]
    144a:	06db      	lsls	r3, r3, #27
    144c:	d129      	bne.n	14a2 <usb_cb_control_setup+0x5e>
    144e:	4b16      	ldr	r3, [pc, #88]	; (14a8 <usb_cb_control_setup+0x64>)
    1450:	785b      	ldrb	r3, [r3, #1]
    1452:	2bbb      	cmp	r3, #187	; 0xbb
    1454:	d01f      	beq.n	1496 <usb_cb_control_setup+0x52>
    1456:	d906      	bls.n	1466 <usb_cb_control_setup+0x22>
    1458:	2bbc      	cmp	r3, #188	; 0xbc
    145a:	d01f      	beq.n	149c <usb_cb_control_setup+0x58>
    145c:	2bbd      	cmp	r3, #189	; 0xbd
    145e:	d120      	bne.n	14a2 <usb_cb_control_setup+0x5e>
    1460:	4b12      	ldr	r3, [pc, #72]	; (14ac <usb_cb_control_setup+0x68>)
    1462:	4798      	blx	r3
    1464:	e01f      	b.n	14a6 <usb_cb_control_setup+0x62>
    1466:	2b10      	cmp	r3, #16
    1468:	d009      	beq.n	147e <usb_cb_control_setup+0x3a>
    146a:	2b30      	cmp	r3, #48	; 0x30
    146c:	d119      	bne.n	14a2 <usb_cb_control_setup+0x5e>
    146e:	4b0e      	ldr	r3, [pc, #56]	; (14a8 <usb_cb_control_setup+0x64>)
    1470:	791a      	ldrb	r2, [r3, #4]
    1472:	7958      	ldrb	r0, [r3, #5]
    1474:	0200      	lsls	r0, r0, #8
    1476:	4310      	orrs	r0, r2
    1478:	4b0d      	ldr	r3, [pc, #52]	; (14b0 <usb_cb_control_setup+0x6c>)
    147a:	4798      	blx	r3
    147c:	e013      	b.n	14a6 <usb_cb_control_setup+0x62>
    147e:	4b0a      	ldr	r3, [pc, #40]	; (14a8 <usb_cb_control_setup+0x64>)
    1480:	789a      	ldrb	r2, [r3, #2]
    1482:	78d9      	ldrb	r1, [r3, #3]
    1484:	0209      	lsls	r1, r1, #8
    1486:	4311      	orrs	r1, r2
    1488:	791a      	ldrb	r2, [r3, #4]
    148a:	7958      	ldrb	r0, [r3, #5]
    148c:	0200      	lsls	r0, r0, #8
    148e:	4310      	orrs	r0, r2
    1490:	4b08      	ldr	r3, [pc, #32]	; (14b4 <usb_cb_control_setup+0x70>)
    1492:	4798      	blx	r3
    1494:	e007      	b.n	14a6 <usb_cb_control_setup+0x62>
    1496:	4b08      	ldr	r3, [pc, #32]	; (14b8 <usb_cb_control_setup+0x74>)
    1498:	4798      	blx	r3
    149a:	e004      	b.n	14a6 <usb_cb_control_setup+0x62>
    149c:	4b07      	ldr	r3, [pc, #28]	; (14bc <usb_cb_control_setup+0x78>)
    149e:	4798      	blx	r3
    14a0:	e001      	b.n	14a6 <usb_cb_control_setup+0x62>
    14a2:	4b07      	ldr	r3, [pc, #28]	; (14c0 <usb_cb_control_setup+0x7c>)
    14a4:	4798      	blx	r3
    14a6:	bd10      	pop	{r4, pc}
    14a8:	200003fc 	.word	0x200003fc
    14ac:	0000140d 	.word	0x0000140d
    14b0:	000013e5 	.word	0x000013e5
    14b4:	000013cd 	.word	0x000013cd
    14b8:	000013f5 	.word	0x000013f5
    14bc:	00001425 	.word	0x00001425
    14c0:	00001e9d 	.word	0x00001e9d

000014c4 <usb_cb_control_in_completion>:
    14c4:	4770      	bx	lr

000014c6 <usb_cb_control_out_completion>:
    14c6:	4770      	bx	lr

000014c8 <usb_cb_completion>:
    14c8:	b510      	push	{r4, lr}
    14ca:	2004      	movs	r0, #4
    14cc:	4b0a      	ldr	r3, [pc, #40]	; (14f8 <usb_cb_completion+0x30>)
    14ce:	4798      	blx	r3
    14d0:	2800      	cmp	r0, #0
    14d2:	d105      	bne.n	14e0 <usb_cb_completion+0x18>
    14d4:	2084      	movs	r0, #132	; 0x84
    14d6:	4b08      	ldr	r3, [pc, #32]	; (14f8 <usb_cb_completion+0x30>)
    14d8:	4798      	blx	r3
    14da:	2800      	cmp	r0, #0
    14dc:	d106      	bne.n	14ec <usb_cb_completion+0x24>
    14de:	bd10      	pop	{r4, pc}
    14e0:	2004      	movs	r0, #4
    14e2:	4b06      	ldr	r3, [pc, #24]	; (14fc <usb_cb_completion+0x34>)
    14e4:	4798      	blx	r3
    14e6:	4b06      	ldr	r3, [pc, #24]	; (1500 <usb_cb_completion+0x38>)
    14e8:	4798      	blx	r3
    14ea:	e7f3      	b.n	14d4 <usb_cb_completion+0xc>
    14ec:	2084      	movs	r0, #132	; 0x84
    14ee:	4b03      	ldr	r3, [pc, #12]	; (14fc <usb_cb_completion+0x34>)
    14f0:	4798      	blx	r3
    14f2:	4b04      	ldr	r3, [pc, #16]	; (1504 <usb_cb_completion+0x3c>)
    14f4:	4798      	blx	r3
    14f6:	e7f2      	b.n	14de <usb_cb_completion+0x16>
    14f8:	00001d6d 	.word	0x00001d6d
    14fc:	00001da5 	.word	0x00001da5
    1500:	00001581 	.word	0x00001581
    1504:	000015f9 	.word	0x000015f9

00001508 <usb_cb_set_interface>:
    1508:	2801      	cmp	r0, #1
    150a:	d00c      	beq.n	1526 <usb_cb_set_interface+0x1e>
    150c:	b203      	sxth	r3, r0
    150e:	2b00      	cmp	r3, #0
    1510:	d005      	beq.n	151e <usb_cb_set_interface+0x16>
    1512:	2802      	cmp	r0, #2
    1514:	d10b      	bne.n	152e <usb_cb_set_interface+0x26>
    1516:	2900      	cmp	r1, #0
    1518:	d00b      	beq.n	1532 <usb_cb_set_interface+0x2a>
    151a:	2000      	movs	r0, #0
    151c:	e008      	b.n	1530 <usb_cb_set_interface+0x28>
    151e:	2900      	cmp	r1, #0
    1520:	d009      	beq.n	1536 <usb_cb_set_interface+0x2e>
    1522:	2000      	movs	r0, #0
    1524:	e004      	b.n	1530 <usb_cb_set_interface+0x28>
    1526:	2900      	cmp	r1, #0
    1528:	d007      	beq.n	153a <usb_cb_set_interface+0x32>
    152a:	2000      	movs	r0, #0
    152c:	e000      	b.n	1530 <usb_cb_set_interface+0x28>
    152e:	2000      	movs	r0, #0
    1530:	4770      	bx	lr
    1532:	2001      	movs	r0, #1
    1534:	e7fc      	b.n	1530 <usb_cb_set_interface+0x28>
    1536:	2001      	movs	r0, #1
    1538:	e7fa      	b.n	1530 <usb_cb_set_interface+0x28>
    153a:	2001      	movs	r0, #1
    153c:	e7f8      	b.n	1530 <usb_cb_set_interface+0x28>
	...

00001540 <usbserial_init>:
    1540:	b510      	push	{r4, lr}
    1542:	2208      	movs	r2, #8
    1544:	2103      	movs	r1, #3
    1546:	2083      	movs	r0, #131	; 0x83
    1548:	4c09      	ldr	r4, [pc, #36]	; (1570 <usbserial_init+0x30>)
    154a:	47a0      	blx	r4
    154c:	2240      	movs	r2, #64	; 0x40
    154e:	2102      	movs	r1, #2
    1550:	2004      	movs	r0, #4
    1552:	47a0      	blx	r4
    1554:	2240      	movs	r2, #64	; 0x40
    1556:	2102      	movs	r1, #2
    1558:	2084      	movs	r0, #132	; 0x84
    155a:	47a0      	blx	r4
    155c:	2240      	movs	r2, #64	; 0x40
    155e:	4905      	ldr	r1, [pc, #20]	; (1574 <usbserial_init+0x34>)
    1560:	2004      	movs	r0, #4
    1562:	4b05      	ldr	r3, [pc, #20]	; (1578 <usbserial_init+0x38>)
    1564:	4798      	blx	r3
    1566:	4b05      	ldr	r3, [pc, #20]	; (157c <usbserial_init+0x3c>)
    1568:	2200      	movs	r2, #0
    156a:	701a      	strb	r2, [r3, #0]
    156c:	bd10      	pop	{r4, pc}
    156e:	46c0      	nop			; (mov r8, r8)
    1570:	00001bb5 	.word	0x00001bb5
    1574:	20000374 	.word	0x20000374
    1578:	00001cbd 	.word	0x00001cbd
    157c:	200002d4 	.word	0x200002d4

00001580 <usbserial_out_completion>:
    1580:	b510      	push	{r4, lr}
    1582:	2240      	movs	r2, #64	; 0x40
    1584:	4908      	ldr	r1, [pc, #32]	; (15a8 <usbserial_out_completion+0x28>)
    1586:	2004      	movs	r0, #4
    1588:	4b08      	ldr	r3, [pc, #32]	; (15ac <usbserial_out_completion+0x2c>)
    158a:	4798      	blx	r3
    158c:	2300      	movs	r3, #0
    158e:	e000      	b.n	1592 <usbserial_out_completion+0x12>
    1590:	3301      	adds	r3, #1
    1592:	2b3e      	cmp	r3, #62	; 0x3e
    1594:	d807      	bhi.n	15a6 <usbserial_out_completion+0x26>
    1596:	4a04      	ldr	r2, [pc, #16]	; (15a8 <usbserial_out_completion+0x28>)
    1598:	5cd2      	ldrb	r2, [r2, r3]
    159a:	2a0a      	cmp	r2, #10
    159c:	d1f8      	bne.n	1590 <usbserial_out_completion+0x10>
    159e:	1c5a      	adds	r2, r3, #1
    15a0:	4901      	ldr	r1, [pc, #4]	; (15a8 <usbserial_out_completion+0x28>)
    15a2:	5c8a      	ldrb	r2, [r1, r2]
    15a4:	e7f4      	b.n	1590 <usbserial_out_completion+0x10>
    15a6:	bd10      	pop	{r4, pc}
    15a8:	20000374 	.word	0x20000374
    15ac:	00001cbd 	.word	0x00001cbd

000015b0 <usbserial_tx>:
    15b0:	b570      	push	{r4, r5, r6, lr}
    15b2:	4b0e      	ldr	r3, [pc, #56]	; (15ec <usbserial_tx+0x3c>)
    15b4:	781b      	ldrb	r3, [r3, #0]
    15b6:	2b00      	cmp	r3, #0
    15b8:	d114      	bne.n	15e4 <usbserial_tx+0x34>
    15ba:	293f      	cmp	r1, #63	; 0x3f
    15bc:	d814      	bhi.n	15e8 <usbserial_tx+0x38>
    15be:	428b      	cmp	r3, r1
    15c0:	d205      	bcs.n	15ce <usbserial_tx+0x1e>
    15c2:	5cc5      	ldrb	r5, [r0, r3]
    15c4:	4c0a      	ldr	r4, [pc, #40]	; (15f0 <usbserial_tx+0x40>)
    15c6:	54e5      	strb	r5, [r4, r3]
    15c8:	3301      	adds	r3, #1
    15ca:	b29b      	uxth	r3, r3
    15cc:	e7f7      	b.n	15be <usbserial_tx+0xe>
    15ce:	2300      	movs	r3, #0
    15d0:	000a      	movs	r2, r1
    15d2:	4907      	ldr	r1, [pc, #28]	; (15f0 <usbserial_tx+0x40>)
    15d4:	2084      	movs	r0, #132	; 0x84
    15d6:	4c07      	ldr	r4, [pc, #28]	; (15f4 <usbserial_tx+0x44>)
    15d8:	47a0      	blx	r4
    15da:	4b04      	ldr	r3, [pc, #16]	; (15ec <usbserial_tx+0x3c>)
    15dc:	2201      	movs	r2, #1
    15de:	701a      	strb	r2, [r3, #0]
    15e0:	2000      	movs	r0, #0
    15e2:	bd70      	pop	{r4, r5, r6, pc}
    15e4:	2001      	movs	r0, #1
    15e6:	e7fc      	b.n	15e2 <usbserial_tx+0x32>
    15e8:	2001      	movs	r0, #1
    15ea:	e7fa      	b.n	15e2 <usbserial_tx+0x32>
    15ec:	200002d4 	.word	0x200002d4
    15f0:	200002f4 	.word	0x200002f4
    15f4:	00001d0d 	.word	0x00001d0d

000015f8 <usbserial_in_completion>:
    15f8:	4b01      	ldr	r3, [pc, #4]	; (1600 <usbserial_in_completion+0x8>)
    15fa:	2200      	movs	r2, #0
    15fc:	701a      	strb	r2, [r3, #0]
    15fe:	4770      	bx	lr
    1600:	200002d4 	.word	0x200002d4

00001604 <usbserial_cb_linestate>:
    1604:	b510      	push	{r4, lr}
    1606:	07c3      	lsls	r3, r0, #31
    1608:	d504      	bpl.n	1614 <usbserial_cb_linestate+0x10>
    160a:	2101      	movs	r1, #1
    160c:	2001      	movs	r0, #1
    160e:	4b04      	ldr	r3, [pc, #16]	; (1620 <usbserial_cb_linestate+0x1c>)
    1610:	4798      	blx	r3
    1612:	bd10      	pop	{r4, pc}
    1614:	2100      	movs	r1, #0
    1616:	2001      	movs	r0, #1
    1618:	4b01      	ldr	r3, [pc, #4]	; (1620 <usbserial_cb_linestate+0x1c>)
    161a:	4798      	blx	r3
    161c:	e7f9      	b.n	1612 <usbserial_cb_linestate+0xe>
    161e:	46c0      	nop			; (mov r8, r8)
    1620:	00000d7d 	.word	0x00000d7d

00001624 <usb_ep0_in_multi>:
    1624:	b570      	push	{r4, r5, r6, lr}
    1626:	4b11      	ldr	r3, [pc, #68]	; (166c <usb_ep0_in_multi+0x48>)
    1628:	881c      	ldrh	r4, [r3, #0]
    162a:	2c40      	cmp	r4, #64	; 0x40
    162c:	d900      	bls.n	1630 <usb_ep0_in_multi+0xc>
    162e:	2440      	movs	r4, #64	; 0x40
    1630:	0026      	movs	r6, r4
    1632:	4d0f      	ldr	r5, [pc, #60]	; (1670 <usb_ep0_in_multi+0x4c>)
    1634:	4b0f      	ldr	r3, [pc, #60]	; (1674 <usb_ep0_in_multi+0x50>)
    1636:	6819      	ldr	r1, [r3, #0]
    1638:	0022      	movs	r2, r4
    163a:	0028      	movs	r0, r5
    163c:	4b0e      	ldr	r3, [pc, #56]	; (1678 <usb_ep0_in_multi+0x54>)
    163e:	4798      	blx	r3
    1640:	2300      	movs	r3, #0
    1642:	0022      	movs	r2, r4
    1644:	0029      	movs	r1, r5
    1646:	2080      	movs	r0, #128	; 0x80
    1648:	4d0c      	ldr	r5, [pc, #48]	; (167c <usb_ep0_in_multi+0x58>)
    164a:	47a8      	blx	r5
    164c:	2c00      	cmp	r4, #0
    164e:	d009      	beq.n	1664 <usb_ep0_in_multi+0x40>
    1650:	4a06      	ldr	r2, [pc, #24]	; (166c <usb_ep0_in_multi+0x48>)
    1652:	8813      	ldrh	r3, [r2, #0]
    1654:	1b1c      	subs	r4, r3, r4
    1656:	8014      	strh	r4, [r2, #0]
    1658:	4a06      	ldr	r2, [pc, #24]	; (1674 <usb_ep0_in_multi+0x50>)
    165a:	6813      	ldr	r3, [r2, #0]
    165c:	469c      	mov	ip, r3
    165e:	4466      	add	r6, ip
    1660:	6016      	str	r6, [r2, #0]
    1662:	bd70      	pop	{r4, r5, r6, pc}
    1664:	4b06      	ldr	r3, [pc, #24]	; (1680 <usb_ep0_in_multi+0x5c>)
    1666:	4798      	blx	r3
    1668:	e7f2      	b.n	1650 <usb_ep0_in_multi+0x2c>
    166a:	46c0      	nop			; (mov r8, r8)
    166c:	200003f6 	.word	0x200003f6
    1670:	200003b4 	.word	0x200003b4
    1674:	200003f8 	.word	0x200003f8
    1678:	000020ed 	.word	0x000020ed
    167c:	00001d0d 	.word	0x00001d0d
    1680:	00001e05 	.word	0x00001e05

00001684 <usb_handle_control_out_complete>:
    1684:	b510      	push	{r4, lr}
    1686:	4b04      	ldr	r3, [pc, #16]	; (1698 <usb_handle_control_out_complete+0x14>)
    1688:	781b      	ldrb	r3, [r3, #0]
    168a:	2260      	movs	r2, #96	; 0x60
    168c:	421a      	tst	r2, r3
    168e:	d100      	bne.n	1692 <usb_handle_control_out_complete+0xe>
    1690:	bd10      	pop	{r4, pc}
    1692:	4b02      	ldr	r3, [pc, #8]	; (169c <usb_handle_control_out_complete+0x18>)
    1694:	4798      	blx	r3
    1696:	e7fb      	b.n	1690 <usb_handle_control_out_complete+0xc>
    1698:	200003fc 	.word	0x200003fc
    169c:	000014c7 	.word	0x000014c7

000016a0 <usb_handle_control_in_complete>:
    16a0:	b510      	push	{r4, lr}
    16a2:	4b12      	ldr	r3, [pc, #72]	; (16ec <usb_handle_control_in_complete+0x4c>)
    16a4:	781a      	ldrb	r2, [r3, #0]
    16a6:	2360      	movs	r3, #96	; 0x60
    16a8:	4013      	ands	r3, r2
    16aa:	d110      	bne.n	16ce <usb_handle_control_in_complete+0x2e>
    16ac:	4b0f      	ldr	r3, [pc, #60]	; (16ec <usb_handle_control_in_complete+0x4c>)
    16ae:	785b      	ldrb	r3, [r3, #1]
    16b0:	2b05      	cmp	r3, #5
    16b2:	d002      	beq.n	16ba <usb_handle_control_in_complete+0x1a>
    16b4:	2b06      	cmp	r3, #6
    16b6:	d007      	beq.n	16c8 <usb_handle_control_in_complete+0x28>
    16b8:	bd10      	pop	{r4, pc}
    16ba:	4b0c      	ldr	r3, [pc, #48]	; (16ec <usb_handle_control_in_complete+0x4c>)
    16bc:	789b      	ldrb	r3, [r3, #2]
    16be:	207f      	movs	r0, #127	; 0x7f
    16c0:	4018      	ands	r0, r3
    16c2:	4b0b      	ldr	r3, [pc, #44]	; (16f0 <usb_handle_control_in_complete+0x50>)
    16c4:	4798      	blx	r3
    16c6:	e7f7      	b.n	16b8 <usb_handle_control_in_complete+0x18>
    16c8:	4b0a      	ldr	r3, [pc, #40]	; (16f4 <usb_handle_control_in_complete+0x54>)
    16ca:	4798      	blx	r3
    16cc:	e7f4      	b.n	16b8 <usb_handle_control_in_complete+0x18>
    16ce:	2b40      	cmp	r3, #64	; 0x40
    16d0:	d109      	bne.n	16e6 <usb_handle_control_in_complete+0x46>
    16d2:	4a06      	ldr	r2, [pc, #24]	; (16ec <usb_handle_control_in_complete+0x4c>)
    16d4:	7911      	ldrb	r1, [r2, #4]
    16d6:	7953      	ldrb	r3, [r2, #5]
    16d8:	021b      	lsls	r3, r3, #8
    16da:	430b      	orrs	r3, r1
    16dc:	2b07      	cmp	r3, #7
    16de:	d1eb      	bne.n	16b8 <usb_handle_control_in_complete+0x18>
    16e0:	4b04      	ldr	r3, [pc, #16]	; (16f4 <usb_handle_control_in_complete+0x54>)
    16e2:	4798      	blx	r3
    16e4:	e7e8      	b.n	16b8 <usb_handle_control_in_complete+0x18>
    16e6:	4b04      	ldr	r3, [pc, #16]	; (16f8 <usb_handle_control_in_complete+0x58>)
    16e8:	4798      	blx	r3
    16ea:	e7e5      	b.n	16b8 <usb_handle_control_in_complete+0x18>
    16ec:	200003fc 	.word	0x200003fc
    16f0:	00001ba1 	.word	0x00001ba1
    16f4:	00001625 	.word	0x00001625
    16f8:	000014c5 	.word	0x000014c5

000016fc <usb_handle_msft20>:
    16fc:	b530      	push	{r4, r5, lr}
    16fe:	b083      	sub	sp, #12
    1700:	2300      	movs	r3, #0
    1702:	9301      	str	r3, [sp, #4]
    1704:	a801      	add	r0, sp, #4
    1706:	4b12      	ldr	r3, [pc, #72]	; (1750 <usb_handle_msft20+0x54>)
    1708:	4798      	blx	r3
    170a:	0004      	movs	r4, r0
    170c:	4a11      	ldr	r2, [pc, #68]	; (1754 <usb_handle_msft20+0x58>)
    170e:	7991      	ldrb	r1, [r2, #6]
    1710:	79d3      	ldrb	r3, [r2, #7]
    1712:	021b      	lsls	r3, r3, #8
    1714:	430b      	orrs	r3, r1
    1716:	4298      	cmp	r0, r3
    1718:	d300      	bcc.n	171c <usb_handle_msft20+0x20>
    171a:	001c      	movs	r4, r3
    171c:	2c3f      	cmp	r4, #63	; 0x3f
    171e:	d80f      	bhi.n	1740 <usb_handle_msft20+0x44>
    1720:	4d0d      	ldr	r5, [pc, #52]	; (1758 <usb_handle_msft20+0x5c>)
    1722:	0022      	movs	r2, r4
    1724:	9901      	ldr	r1, [sp, #4]
    1726:	0028      	movs	r0, r5
    1728:	4b0c      	ldr	r3, [pc, #48]	; (175c <usb_handle_msft20+0x60>)
    172a:	4798      	blx	r3
    172c:	2301      	movs	r3, #1
    172e:	0022      	movs	r2, r4
    1730:	0029      	movs	r1, r5
    1732:	2080      	movs	r0, #128	; 0x80
    1734:	4c0a      	ldr	r4, [pc, #40]	; (1760 <usb_handle_msft20+0x64>)
    1736:	47a0      	blx	r4
    1738:	4b0a      	ldr	r3, [pc, #40]	; (1764 <usb_handle_msft20+0x68>)
    173a:	4798      	blx	r3
    173c:	b003      	add	sp, #12
    173e:	bd30      	pop	{r4, r5, pc}
    1740:	4b09      	ldr	r3, [pc, #36]	; (1768 <usb_handle_msft20+0x6c>)
    1742:	801c      	strh	r4, [r3, #0]
    1744:	4b09      	ldr	r3, [pc, #36]	; (176c <usb_handle_msft20+0x70>)
    1746:	9a01      	ldr	r2, [sp, #4]
    1748:	601a      	str	r2, [r3, #0]
    174a:	4b09      	ldr	r3, [pc, #36]	; (1770 <usb_handle_msft20+0x74>)
    174c:	4798      	blx	r3
    174e:	e7f3      	b.n	1738 <usb_handle_msft20+0x3c>
    1750:	00001309 	.word	0x00001309
    1754:	200003fc 	.word	0x200003fc
    1758:	200003b4 	.word	0x200003b4
    175c:	000020ed 	.word	0x000020ed
    1760:	00001d0d 	.word	0x00001d0d
    1764:	00001e05 	.word	0x00001e05
    1768:	200003f6 	.word	0x200003f6
    176c:	200003f8 	.word	0x200003f8
    1770:	00001625 	.word	0x00001625

00001774 <usb_handle_setup>:
    1774:	b530      	push	{r4, r5, lr}
    1776:	b083      	sub	sp, #12
    1778:	4b9e      	ldr	r3, [pc, #632]	; (19f4 <usb_handle_setup+0x280>)
    177a:	781a      	ldrb	r2, [r3, #0]
    177c:	2360      	movs	r3, #96	; 0x60
    177e:	4013      	ands	r3, r2
    1780:	d000      	beq.n	1784 <usb_handle_setup+0x10>
    1782:	e082      	b.n	188a <usb_handle_setup+0x116>
    1784:	4b9b      	ldr	r3, [pc, #620]	; (19f4 <usb_handle_setup+0x280>)
    1786:	785b      	ldrb	r3, [r3, #1]
    1788:	2b0b      	cmp	r3, #11
    178a:	d87b      	bhi.n	1884 <usb_handle_setup+0x110>
    178c:	009b      	lsls	r3, r3, #2
    178e:	4a9a      	ldr	r2, [pc, #616]	; (19f8 <usb_handle_setup+0x284>)
    1790:	58d3      	ldr	r3, [r2, r3]
    1792:	469f      	mov	pc, r3
    1794:	4b99      	ldr	r3, [pc, #612]	; (19fc <usb_handle_setup+0x288>)
    1796:	2200      	movs	r2, #0
    1798:	701a      	strb	r2, [r3, #0]
    179a:	705a      	strb	r2, [r3, #1]
    179c:	2002      	movs	r0, #2
    179e:	4b98      	ldr	r3, [pc, #608]	; (1a00 <usb_handle_setup+0x28c>)
    17a0:	4798      	blx	r3
    17a2:	4b98      	ldr	r3, [pc, #608]	; (1a04 <usb_handle_setup+0x290>)
    17a4:	4798      	blx	r3
    17a6:	e077      	b.n	1898 <usb_handle_setup+0x124>
    17a8:	2000      	movs	r0, #0
    17aa:	4b95      	ldr	r3, [pc, #596]	; (1a00 <usb_handle_setup+0x28c>)
    17ac:	4798      	blx	r3
    17ae:	4b95      	ldr	r3, [pc, #596]	; (1a04 <usb_handle_setup+0x290>)
    17b0:	4798      	blx	r3
    17b2:	e071      	b.n	1898 <usb_handle_setup+0x124>
    17b4:	2000      	movs	r0, #0
    17b6:	4b92      	ldr	r3, [pc, #584]	; (1a00 <usb_handle_setup+0x28c>)
    17b8:	4798      	blx	r3
    17ba:	4b92      	ldr	r3, [pc, #584]	; (1a04 <usb_handle_setup+0x290>)
    17bc:	4798      	blx	r3
    17be:	e06b      	b.n	1898 <usb_handle_setup+0x124>
    17c0:	4b8c      	ldr	r3, [pc, #560]	; (19f4 <usb_handle_setup+0x280>)
    17c2:	789a      	ldrb	r2, [r3, #2]
    17c4:	78d9      	ldrb	r1, [r3, #3]
    17c6:	0209      	lsls	r1, r1, #8
    17c8:	4311      	orrs	r1, r2
    17ca:	0a08      	lsrs	r0, r1, #8
    17cc:	b2c9      	uxtb	r1, r1
    17ce:	2300      	movs	r3, #0
    17d0:	9301      	str	r3, [sp, #4]
    17d2:	aa01      	add	r2, sp, #4
    17d4:	4b8c      	ldr	r3, [pc, #560]	; (1a08 <usb_handle_setup+0x294>)
    17d6:	4798      	blx	r3
    17d8:	2800      	cmp	r0, #0
    17da:	d01d      	beq.n	1818 <usb_handle_setup+0xa4>
    17dc:	9901      	ldr	r1, [sp, #4]
    17de:	2900      	cmp	r1, #0
    17e0:	d01a      	beq.n	1818 <usb_handle_setup+0xa4>
    17e2:	4c84      	ldr	r4, [pc, #528]	; (19f4 <usb_handle_setup+0x280>)
    17e4:	79a5      	ldrb	r5, [r4, #6]
    17e6:	79e2      	ldrb	r2, [r4, #7]
    17e8:	0212      	lsls	r2, r2, #8
    17ea:	432a      	orrs	r2, r5
    17ec:	4282      	cmp	r2, r0
    17ee:	d300      	bcc.n	17f2 <usb_handle_setup+0x7e>
    17f0:	0002      	movs	r2, r0
    17f2:	4b82      	ldr	r3, [pc, #520]	; (19fc <usb_handle_setup+0x288>)
    17f4:	4299      	cmp	r1, r3
    17f6:	d006      	beq.n	1806 <usb_handle_setup+0x92>
    17f8:	4b84      	ldr	r3, [pc, #528]	; (1a0c <usb_handle_setup+0x298>)
    17fa:	801a      	strh	r2, [r3, #0]
    17fc:	4b84      	ldr	r3, [pc, #528]	; (1a10 <usb_handle_setup+0x29c>)
    17fe:	6019      	str	r1, [r3, #0]
    1800:	4b84      	ldr	r3, [pc, #528]	; (1a14 <usb_handle_setup+0x2a0>)
    1802:	4798      	blx	r3
    1804:	e048      	b.n	1898 <usb_handle_setup+0x124>
    1806:	4b81      	ldr	r3, [pc, #516]	; (1a0c <usb_handle_setup+0x298>)
    1808:	2100      	movs	r1, #0
    180a:	8019      	strh	r1, [r3, #0]
    180c:	2301      	movs	r3, #1
    180e:	497b      	ldr	r1, [pc, #492]	; (19fc <usb_handle_setup+0x288>)
    1810:	2080      	movs	r0, #128	; 0x80
    1812:	4c81      	ldr	r4, [pc, #516]	; (1a18 <usb_handle_setup+0x2a4>)
    1814:	47a0      	blx	r4
    1816:	e03f      	b.n	1898 <usb_handle_setup+0x124>
    1818:	4b80      	ldr	r3, [pc, #512]	; (1a1c <usb_handle_setup+0x2a8>)
    181a:	4798      	blx	r3
    181c:	e03c      	b.n	1898 <usb_handle_setup+0x124>
    181e:	4b80      	ldr	r3, [pc, #512]	; (1a20 <usb_handle_setup+0x2ac>)
    1820:	781a      	ldrb	r2, [r3, #0]
    1822:	4b76      	ldr	r3, [pc, #472]	; (19fc <usb_handle_setup+0x288>)
    1824:	701a      	strb	r2, [r3, #0]
    1826:	2001      	movs	r0, #1
    1828:	4b75      	ldr	r3, [pc, #468]	; (1a00 <usb_handle_setup+0x28c>)
    182a:	4798      	blx	r3
    182c:	4b75      	ldr	r3, [pc, #468]	; (1a04 <usb_handle_setup+0x290>)
    182e:	4798      	blx	r3
    1830:	e032      	b.n	1898 <usb_handle_setup+0x124>
    1832:	4b70      	ldr	r3, [pc, #448]	; (19f4 <usb_handle_setup+0x280>)
    1834:	7898      	ldrb	r0, [r3, #2]
    1836:	4b7b      	ldr	r3, [pc, #492]	; (1a24 <usb_handle_setup+0x2b0>)
    1838:	4798      	blx	r3
    183a:	2800      	cmp	r0, #0
    183c:	d009      	beq.n	1852 <usb_handle_setup+0xde>
    183e:	2000      	movs	r0, #0
    1840:	4b6f      	ldr	r3, [pc, #444]	; (1a00 <usb_handle_setup+0x28c>)
    1842:	4798      	blx	r3
    1844:	4b6b      	ldr	r3, [pc, #428]	; (19f4 <usb_handle_setup+0x280>)
    1846:	789a      	ldrb	r2, [r3, #2]
    1848:	4b75      	ldr	r3, [pc, #468]	; (1a20 <usb_handle_setup+0x2ac>)
    184a:	701a      	strb	r2, [r3, #0]
    184c:	4b6d      	ldr	r3, [pc, #436]	; (1a04 <usb_handle_setup+0x290>)
    184e:	4798      	blx	r3
    1850:	e022      	b.n	1898 <usb_handle_setup+0x124>
    1852:	4b72      	ldr	r3, [pc, #456]	; (1a1c <usb_handle_setup+0x2a8>)
    1854:	4798      	blx	r3
    1856:	e01f      	b.n	1898 <usb_handle_setup+0x124>
    1858:	4b66      	ldr	r3, [pc, #408]	; (19f4 <usb_handle_setup+0x280>)
    185a:	789a      	ldrb	r2, [r3, #2]
    185c:	78d9      	ldrb	r1, [r3, #3]
    185e:	0209      	lsls	r1, r1, #8
    1860:	4311      	orrs	r1, r2
    1862:	791a      	ldrb	r2, [r3, #4]
    1864:	7958      	ldrb	r0, [r3, #5]
    1866:	0200      	lsls	r0, r0, #8
    1868:	4310      	orrs	r0, r2
    186a:	4b6f      	ldr	r3, [pc, #444]	; (1a28 <usb_handle_setup+0x2b4>)
    186c:	4798      	blx	r3
    186e:	2800      	cmp	r0, #0
    1870:	d005      	beq.n	187e <usb_handle_setup+0x10a>
    1872:	2000      	movs	r0, #0
    1874:	4b62      	ldr	r3, [pc, #392]	; (1a00 <usb_handle_setup+0x28c>)
    1876:	4798      	blx	r3
    1878:	4b62      	ldr	r3, [pc, #392]	; (1a04 <usb_handle_setup+0x290>)
    187a:	4798      	blx	r3
    187c:	e00c      	b.n	1898 <usb_handle_setup+0x124>
    187e:	4b67      	ldr	r3, [pc, #412]	; (1a1c <usb_handle_setup+0x2a8>)
    1880:	4798      	blx	r3
    1882:	e009      	b.n	1898 <usb_handle_setup+0x124>
    1884:	4b65      	ldr	r3, [pc, #404]	; (1a1c <usb_handle_setup+0x2a8>)
    1886:	4798      	blx	r3
    1888:	e006      	b.n	1898 <usb_handle_setup+0x124>
    188a:	2b20      	cmp	r3, #32
    188c:	d006      	beq.n	189c <usb_handle_setup+0x128>
    188e:	2b40      	cmp	r3, #64	; 0x40
    1890:	d100      	bne.n	1894 <usb_handle_setup+0x120>
    1892:	e06a      	b.n	196a <usb_handle_setup+0x1f6>
    1894:	4b65      	ldr	r3, [pc, #404]	; (1a2c <usb_handle_setup+0x2b8>)
    1896:	4798      	blx	r3
    1898:	b003      	add	sp, #12
    189a:	bd30      	pop	{r4, r5, pc}
    189c:	4b55      	ldr	r3, [pc, #340]	; (19f4 <usb_handle_setup+0x280>)
    189e:	7919      	ldrb	r1, [r3, #4]
    18a0:	231f      	movs	r3, #31
    18a2:	401a      	ands	r2, r3
    18a4:	2a01      	cmp	r2, #1
    18a6:	d004      	beq.n	18b2 <usb_handle_setup+0x13e>
    18a8:	2a02      	cmp	r2, #2
    18aa:	d1f3      	bne.n	1894 <usb_handle_setup+0x120>
    18ac:	4b5b      	ldr	r3, [pc, #364]	; (1a1c <usb_handle_setup+0x2a8>)
    18ae:	4798      	blx	r3
    18b0:	e7f2      	b.n	1898 <usb_handle_setup+0x124>
    18b2:	2902      	cmp	r1, #2
    18b4:	d00e      	beq.n	18d4 <usb_handle_setup+0x160>
    18b6:	2900      	cmp	r1, #0
    18b8:	d1ec      	bne.n	1894 <usb_handle_setup+0x120>
    18ba:	4b4e      	ldr	r3, [pc, #312]	; (19f4 <usb_handle_setup+0x280>)
    18bc:	785b      	ldrb	r3, [r3, #1]
    18be:	2b21      	cmp	r3, #33	; 0x21
    18c0:	d01c      	beq.n	18fc <usb_handle_setup+0x188>
    18c2:	2b20      	cmp	r3, #32
    18c4:	d01d      	beq.n	1902 <usb_handle_setup+0x18e>
    18c6:	2b22      	cmp	r3, #34	; 0x22
    18c8:	d03b      	beq.n	1942 <usb_handle_setup+0x1ce>
    18ca:	2b23      	cmp	r3, #35	; 0x23
    18cc:	d047      	beq.n	195e <usb_handle_setup+0x1ea>
    18ce:	4b53      	ldr	r3, [pc, #332]	; (1a1c <usb_handle_setup+0x2a8>)
    18d0:	4798      	blx	r3
    18d2:	e7e1      	b.n	1898 <usb_handle_setup+0x124>
    18d4:	4847      	ldr	r0, [pc, #284]	; (19f4 <usb_handle_setup+0x280>)
    18d6:	4b56      	ldr	r3, [pc, #344]	; (1a30 <usb_handle_setup+0x2bc>)
    18d8:	4798      	blx	r3
    18da:	4b4a      	ldr	r3, [pc, #296]	; (1a04 <usb_handle_setup+0x290>)
    18dc:	4798      	blx	r3
    18de:	e7db      	b.n	1898 <usb_handle_setup+0x124>
    18e0:	7810      	ldrb	r0, [r2, #0]
    18e2:	4946      	ldr	r1, [pc, #280]	; (19fc <usb_handle_setup+0x288>)
    18e4:	54c8      	strb	r0, [r1, r3]
    18e6:	3201      	adds	r2, #1
    18e8:	3301      	adds	r3, #1
    18ea:	b29b      	uxth	r3, r3
    18ec:	2b06      	cmp	r3, #6
    18ee:	d9f7      	bls.n	18e0 <usb_handle_setup+0x16c>
    18f0:	2007      	movs	r0, #7
    18f2:	4b43      	ldr	r3, [pc, #268]	; (1a00 <usb_handle_setup+0x28c>)
    18f4:	4798      	blx	r3
    18f6:	4b43      	ldr	r3, [pc, #268]	; (1a04 <usb_handle_setup+0x290>)
    18f8:	4798      	blx	r3
    18fa:	e7cd      	b.n	1898 <usb_handle_setup+0x124>
    18fc:	4a4d      	ldr	r2, [pc, #308]	; (1a34 <usb_handle_setup+0x2c0>)
    18fe:	2300      	movs	r3, #0
    1900:	e7f4      	b.n	18ec <usb_handle_setup+0x178>
    1902:	4a3c      	ldr	r2, [pc, #240]	; (19f4 <usb_handle_setup+0x280>)
    1904:	7991      	ldrb	r1, [r2, #6]
    1906:	79d3      	ldrb	r3, [r2, #7]
    1908:	021b      	lsls	r3, r3, #8
    190a:	430b      	orrs	r3, r1
    190c:	d105      	bne.n	191a <usb_handle_setup+0x1a6>
    190e:	2000      	movs	r0, #0
    1910:	4b3b      	ldr	r3, [pc, #236]	; (1a00 <usb_handle_setup+0x28c>)
    1912:	4798      	blx	r3
    1914:	4b3b      	ldr	r3, [pc, #236]	; (1a04 <usb_handle_setup+0x290>)
    1916:	4798      	blx	r3
    1918:	e7be      	b.n	1898 <usb_handle_setup+0x124>
    191a:	4846      	ldr	r0, [pc, #280]	; (1a34 <usb_handle_setup+0x2c0>)
    191c:	2300      	movs	r3, #0
    191e:	4935      	ldr	r1, [pc, #212]	; (19f4 <usb_handle_setup+0x280>)
    1920:	798c      	ldrb	r4, [r1, #6]
    1922:	79ca      	ldrb	r2, [r1, #7]
    1924:	0212      	lsls	r2, r2, #8
    1926:	4322      	orrs	r2, r4
    1928:	429a      	cmp	r2, r3
    192a:	d9f0      	bls.n	190e <usb_handle_setup+0x19a>
    192c:	001a      	movs	r2, r3
    192e:	3208      	adds	r2, #8
    1930:	4941      	ldr	r1, [pc, #260]	; (1a38 <usb_handle_setup+0x2c4>)
    1932:	5c8a      	ldrb	r2, [r1, r2]
    1934:	7002      	strb	r2, [r0, #0]
    1936:	3001      	adds	r0, #1
    1938:	2b06      	cmp	r3, #6
    193a:	d8e8      	bhi.n	190e <usb_handle_setup+0x19a>
    193c:	3301      	adds	r3, #1
    193e:	b29b      	uxth	r3, r3
    1940:	e7ed      	b.n	191e <usb_handle_setup+0x1aa>
    1942:	4b2c      	ldr	r3, [pc, #176]	; (19f4 <usb_handle_setup+0x280>)
    1944:	789a      	ldrb	r2, [r3, #2]
    1946:	4b3b      	ldr	r3, [pc, #236]	; (1a34 <usb_handle_setup+0x2c0>)
    1948:	71da      	strb	r2, [r3, #7]
    194a:	79d8      	ldrb	r0, [r3, #7]
    194c:	b2c0      	uxtb	r0, r0
    194e:	4b3b      	ldr	r3, [pc, #236]	; (1a3c <usb_handle_setup+0x2c8>)
    1950:	4798      	blx	r3
    1952:	2000      	movs	r0, #0
    1954:	4b2a      	ldr	r3, [pc, #168]	; (1a00 <usb_handle_setup+0x28c>)
    1956:	4798      	blx	r3
    1958:	4b2a      	ldr	r3, [pc, #168]	; (1a04 <usb_handle_setup+0x290>)
    195a:	4798      	blx	r3
    195c:	e79c      	b.n	1898 <usb_handle_setup+0x124>
    195e:	2000      	movs	r0, #0
    1960:	4b27      	ldr	r3, [pc, #156]	; (1a00 <usb_handle_setup+0x28c>)
    1962:	4798      	blx	r3
    1964:	4b27      	ldr	r3, [pc, #156]	; (1a04 <usb_handle_setup+0x290>)
    1966:	4798      	blx	r3
    1968:	e796      	b.n	1898 <usb_handle_setup+0x124>
    196a:	4b22      	ldr	r3, [pc, #136]	; (19f4 <usb_handle_setup+0x280>)
    196c:	785b      	ldrb	r3, [r3, #1]
    196e:	2b12      	cmp	r3, #18
    1970:	d011      	beq.n	1996 <usb_handle_setup+0x222>
    1972:	2b13      	cmp	r3, #19
    1974:	d13b      	bne.n	19ee <usb_handle_setup+0x27a>
    1976:	4a1f      	ldr	r2, [pc, #124]	; (19f4 <usb_handle_setup+0x280>)
    1978:	7911      	ldrb	r1, [r2, #4]
    197a:	7953      	ldrb	r3, [r2, #5]
    197c:	021b      	lsls	r3, r3, #8
    197e:	430b      	orrs	r3, r1
    1980:	2b02      	cmp	r3, #2
    1982:	d134      	bne.n	19ee <usb_handle_setup+0x27a>
    1984:	7891      	ldrb	r1, [r2, #2]
    1986:	78d3      	ldrb	r3, [r2, #3]
    1988:	021b      	lsls	r3, r3, #8
    198a:	430b      	orrs	r3, r1
    198c:	2b01      	cmp	r3, #1
    198e:	d00c      	beq.n	19aa <usb_handle_setup+0x236>
    1990:	4b22      	ldr	r3, [pc, #136]	; (1a1c <usb_handle_setup+0x2a8>)
    1992:	4798      	blx	r3
    1994:	e77e      	b.n	1894 <usb_handle_setup+0x120>
    1996:	4917      	ldr	r1, [pc, #92]	; (19f4 <usb_handle_setup+0x280>)
    1998:	7908      	ldrb	r0, [r1, #4]
    199a:	794a      	ldrb	r2, [r1, #5]
    199c:	0212      	lsls	r2, r2, #8
    199e:	4302      	orrs	r2, r0
    19a0:	2a07      	cmp	r2, #7
    19a2:	d1e6      	bne.n	1972 <usb_handle_setup+0x1fe>
    19a4:	4b26      	ldr	r3, [pc, #152]	; (1a40 <usb_handle_setup+0x2cc>)
    19a6:	4798      	blx	r3
    19a8:	e776      	b.n	1898 <usb_handle_setup+0x124>
    19aa:	2300      	movs	r3, #0
    19ac:	9301      	str	r3, [sp, #4]
    19ae:	a801      	add	r0, sp, #4
    19b0:	4b24      	ldr	r3, [pc, #144]	; (1a44 <usb_handle_setup+0x2d0>)
    19b2:	4798      	blx	r3
    19b4:	4b0f      	ldr	r3, [pc, #60]	; (19f4 <usb_handle_setup+0x280>)
    19b6:	799a      	ldrb	r2, [r3, #6]
    19b8:	79d9      	ldrb	r1, [r3, #7]
    19ba:	0209      	lsls	r1, r1, #8
    19bc:	4311      	orrs	r1, r2
    19be:	4281      	cmp	r1, r0
    19c0:	d300      	bcc.n	19c4 <usb_handle_setup+0x250>
    19c2:	0001      	movs	r1, r0
    19c4:	2940      	cmp	r1, #64	; 0x40
    19c6:	d900      	bls.n	19ca <usb_handle_setup+0x256>
    19c8:	2140      	movs	r1, #64	; 0x40
    19ca:	2300      	movs	r3, #0
    19cc:	e007      	b.n	19de <usb_handle_setup+0x26a>
    19ce:	9a01      	ldr	r2, [sp, #4]
    19d0:	7814      	ldrb	r4, [r2, #0]
    19d2:	480a      	ldr	r0, [pc, #40]	; (19fc <usb_handle_setup+0x288>)
    19d4:	54c4      	strb	r4, [r0, r3]
    19d6:	3201      	adds	r2, #1
    19d8:	9201      	str	r2, [sp, #4]
    19da:	3301      	adds	r3, #1
    19dc:	b29b      	uxth	r3, r3
    19de:	4299      	cmp	r1, r3
    19e0:	d8f5      	bhi.n	19ce <usb_handle_setup+0x25a>
    19e2:	b2c8      	uxtb	r0, r1
    19e4:	4b06      	ldr	r3, [pc, #24]	; (1a00 <usb_handle_setup+0x28c>)
    19e6:	4798      	blx	r3
    19e8:	4b06      	ldr	r3, [pc, #24]	; (1a04 <usb_handle_setup+0x290>)
    19ea:	4798      	blx	r3
    19ec:	e754      	b.n	1898 <usb_handle_setup+0x124>
    19ee:	4b0b      	ldr	r3, [pc, #44]	; (1a1c <usb_handle_setup+0x2a8>)
    19f0:	4798      	blx	r3
    19f2:	e751      	b.n	1898 <usb_handle_setup+0x124>
    19f4:	200003fc 	.word	0x200003fc
    19f8:	000022dc 	.word	0x000022dc
    19fc:	200003b4 	.word	0x200003b4
    1a00:	00001e4d 	.word	0x00001e4d
    1a04:	00001e05 	.word	0x00001e05
    1a08:	00001315 	.word	0x00001315
    1a0c:	200003f6 	.word	0x200003f6
    1a10:	200003f8 	.word	0x200003f8
    1a14:	00001625 	.word	0x00001625
    1a18:	00001d0d 	.word	0x00001d0d
    1a1c:	00001e9d 	.word	0x00001e9d
    1a20:	200003f4 	.word	0x200003f4
    1a24:	000013b5 	.word	0x000013b5
    1a28:	00001509 	.word	0x00001509
    1a2c:	00001445 	.word	0x00001445
    1a30:	00001289 	.word	0x00001289
    1a34:	20000020 	.word	0x20000020
    1a38:	20000404 	.word	0x20000404
    1a3c:	00001605 	.word	0x00001605
    1a40:	000016fd 	.word	0x000016fd
    1a44:	000012f9 	.word	0x000012f9

00001a48 <usb_string_to_descriptor>:
    1a48:	b570      	push	{r4, r5, r6, lr}
    1a4a:	0005      	movs	r5, r0
    1a4c:	4b0b      	ldr	r3, [pc, #44]	; (1a7c <usb_string_to_descriptor+0x34>)
    1a4e:	4798      	blx	r3
    1a50:	b280      	uxth	r0, r0
    1a52:	281f      	cmp	r0, #31
    1a54:	d900      	bls.n	1a58 <usb_string_to_descriptor+0x10>
    1a56:	201f      	movs	r0, #31
    1a58:	4a09      	ldr	r2, [pc, #36]	; (1a80 <usb_string_to_descriptor+0x38>)
    1a5a:	1c43      	adds	r3, r0, #1
    1a5c:	005b      	lsls	r3, r3, #1
    1a5e:	7013      	strb	r3, [r2, #0]
    1a60:	2303      	movs	r3, #3
    1a62:	7053      	strb	r3, [r2, #1]
    1a64:	2300      	movs	r3, #0
    1a66:	4298      	cmp	r0, r3
    1a68:	dd06      	ble.n	1a78 <usb_string_to_descriptor+0x30>
    1a6a:	5ce9      	ldrb	r1, [r5, r3]
    1a6c:	005c      	lsls	r4, r3, #1
    1a6e:	4a04      	ldr	r2, [pc, #16]	; (1a80 <usb_string_to_descriptor+0x38>)
    1a70:	1912      	adds	r2, r2, r4
    1a72:	8051      	strh	r1, [r2, #2]
    1a74:	3301      	adds	r3, #1
    1a76:	e7f6      	b.n	1a66 <usb_string_to_descriptor+0x1e>
    1a78:	4801      	ldr	r0, [pc, #4]	; (1a80 <usb_string_to_descriptor+0x38>)
    1a7a:	bd70      	pop	{r4, r5, r6, pc}
    1a7c:	0000210f 	.word	0x0000210f
    1a80:	200003b4 	.word	0x200003b4

00001a84 <usb_reset>:
    1a84:	b510      	push	{r4, lr}
    1a86:	4b0f      	ldr	r3, [pc, #60]	; (1ac4 <usb_reset+0x40>)
    1a88:	4a0f      	ldr	r2, [pc, #60]	; (1ac8 <usb_reset+0x44>)
    1a8a:	601a      	str	r2, [r3, #0]
    1a8c:	6858      	ldr	r0, [r3, #4]
    1a8e:	4c0f      	ldr	r4, [pc, #60]	; (1acc <usb_reset+0x48>)
    1a90:	4020      	ands	r0, r4
    1a92:	22c0      	movs	r2, #192	; 0xc0
    1a94:	0592      	lsls	r2, r2, #22
    1a96:	0001      	movs	r1, r0
    1a98:	4311      	orrs	r1, r2
    1a9a:	6059      	str	r1, [r3, #4]
    1a9c:	490c      	ldr	r1, [pc, #48]	; (1ad0 <usb_reset+0x4c>)
    1a9e:	6119      	str	r1, [r3, #16]
    1aa0:	6959      	ldr	r1, [r3, #20]
    1aa2:	4021      	ands	r1, r4
    1aa4:	430a      	orrs	r2, r1
    1aa6:	615a      	str	r2, [r3, #20]
    1aa8:	6959      	ldr	r1, [r3, #20]
    1aaa:	2280      	movs	r2, #128	; 0x80
    1aac:	0612      	lsls	r2, r2, #24
    1aae:	430a      	orrs	r2, r1
    1ab0:	615a      	str	r2, [r3, #20]
    1ab2:	4b08      	ldr	r3, [pc, #32]	; (1ad4 <usb_reset+0x50>)
    1ab4:	220a      	movs	r2, #10
    1ab6:	32ff      	adds	r2, #255	; 0xff
    1ab8:	2110      	movs	r1, #16
    1aba:	5499      	strb	r1, [r3, r2]
    1abc:	3a09      	subs	r2, #9
    1abe:	3101      	adds	r1, #1
    1ac0:	5499      	strb	r1, [r3, r2]
    1ac2:	bd10      	pop	{r4, pc}
    1ac4:	20000214 	.word	0x20000214
    1ac8:	20000404 	.word	0x20000404
    1acc:	8fffffff 	.word	0x8fffffff
    1ad0:	200003b4 	.word	0x200003b4
    1ad4:	41005000 	.word	0x41005000

00001ad8 <usb_init>:
    1ad8:	b570      	push	{r4, r5, r6, lr}
    1ada:	4a27      	ldr	r2, [pc, #156]	; (1b78 <usb_init+0xa0>)
    1adc:	69d3      	ldr	r3, [r2, #28]
    1ade:	2120      	movs	r1, #32
    1ae0:	430b      	orrs	r3, r1
    1ae2:	61d3      	str	r3, [r2, #28]
    1ae4:	4b25      	ldr	r3, [pc, #148]	; (1b7c <usb_init+0xa4>)
    1ae6:	4a26      	ldr	r2, [pc, #152]	; (1b80 <usb_init+0xa8>)
    1ae8:	805a      	strh	r2, [r3, #2]
    1aea:	4b26      	ldr	r3, [pc, #152]	; (1b84 <usb_init+0xac>)
    1aec:	2201      	movs	r2, #1
    1aee:	701a      	strb	r2, [r3, #0]
    1af0:	4b24      	ldr	r3, [pc, #144]	; (1b84 <usb_init+0xac>)
    1af2:	789b      	ldrb	r3, [r3, #2]
    1af4:	07db      	lsls	r3, r3, #31
    1af6:	d4fb      	bmi.n	1af0 <usb_init+0x18>
    1af8:	4b22      	ldr	r3, [pc, #136]	; (1b84 <usb_init+0xac>)
    1afa:	2202      	movs	r2, #2
    1afc:	701a      	strb	r2, [r3, #0]
    1afe:	4b21      	ldr	r3, [pc, #132]	; (1b84 <usb_init+0xac>)
    1b00:	789b      	ldrb	r3, [r3, #2]
    1b02:	079b      	lsls	r3, r3, #30
    1b04:	d4fb      	bmi.n	1afe <usb_init+0x26>
    1b06:	4b20      	ldr	r3, [pc, #128]	; (1b88 <usb_init+0xb0>)
    1b08:	681a      	ldr	r2, [r3, #0]
    1b0a:	0b51      	lsrs	r1, r2, #13
    1b0c:	231f      	movs	r3, #31
    1b0e:	400b      	ands	r3, r1
    1b10:	2b1f      	cmp	r3, #31
    1b12:	d02a      	beq.n	1b6a <usb_init+0x92>
    1b14:	0c91      	lsrs	r1, r2, #18
    1b16:	201f      	movs	r0, #31
    1b18:	4008      	ands	r0, r1
    1b1a:	281f      	cmp	r0, #31
    1b1c:	d027      	beq.n	1b6e <usb_init+0x96>
    1b1e:	0dd1      	lsrs	r1, r2, #23
    1b20:	2207      	movs	r2, #7
    1b22:	400a      	ands	r2, r1
    1b24:	2a07      	cmp	r2, #7
    1b26:	d024      	beq.n	1b72 <usb_init+0x9a>
    1b28:	019b      	lsls	r3, r3, #6
    1b2a:	4303      	orrs	r3, r0
    1b2c:	0312      	lsls	r2, r2, #12
    1b2e:	4313      	orrs	r3, r2
    1b30:	4c14      	ldr	r4, [pc, #80]	; (1b84 <usb_init+0xac>)
    1b32:	8523      	strh	r3, [r4, #40]	; 0x28
    1b34:	4b15      	ldr	r3, [pc, #84]	; (1b8c <usb_init+0xb4>)
    1b36:	781a      	ldrb	r2, [r3, #0]
    1b38:	0152      	lsls	r2, r2, #5
    1b3a:	4d15      	ldr	r5, [pc, #84]	; (1b90 <usb_init+0xb8>)
    1b3c:	2100      	movs	r1, #0
    1b3e:	0028      	movs	r0, r5
    1b40:	4b14      	ldr	r3, [pc, #80]	; (1b94 <usb_init+0xbc>)
    1b42:	4798      	blx	r3
    1b44:	6265      	str	r5, [r4, #36]	; 0x24
    1b46:	2308      	movs	r3, #8
    1b48:	8323      	strh	r3, [r4, #24]
    1b4a:	4b13      	ldr	r3, [pc, #76]	; (1b98 <usb_init+0xc0>)
    1b4c:	2258      	movs	r2, #88	; 0x58
    1b4e:	5c99      	ldrb	r1, [r3, r2]
    1b50:	2001      	movs	r0, #1
    1b52:	4301      	orrs	r1, r0
    1b54:	5499      	strb	r1, [r3, r2]
    1b56:	2159      	movs	r1, #89	; 0x59
    1b58:	5c5a      	ldrb	r2, [r3, r1]
    1b5a:	4302      	orrs	r2, r0
    1b5c:	545a      	strb	r2, [r3, r1]
    1b5e:	223c      	movs	r2, #60	; 0x3c
    1b60:	310d      	adds	r1, #13
    1b62:	5499      	strb	r1, [r3, r2]
    1b64:	4b0d      	ldr	r3, [pc, #52]	; (1b9c <usb_init+0xc4>)
    1b66:	4798      	blx	r3
    1b68:	bd70      	pop	{r4, r5, r6, pc}
    1b6a:	3b1a      	subs	r3, #26
    1b6c:	e7d2      	b.n	1b14 <usb_init+0x3c>
    1b6e:	3802      	subs	r0, #2
    1b70:	e7d5      	b.n	1b1e <usb_init+0x46>
    1b72:	3a04      	subs	r2, #4
    1b74:	e7d8      	b.n	1b28 <usb_init+0x50>
    1b76:	46c0      	nop			; (mov r8, r8)
    1b78:	40000400 	.word	0x40000400
    1b7c:	40000c00 	.word	0x40000c00
    1b80:	00004006 	.word	0x00004006
    1b84:	41005000 	.word	0x41005000
    1b88:	00806024 	.word	0x00806024
    1b8c:	000022bd 	.word	0x000022bd
    1b90:	20000214 	.word	0x20000214
    1b94:	000020ff 	.word	0x000020ff
    1b98:	41004400 	.word	0x41004400
    1b9c:	00001a85 	.word	0x00001a85

00001ba0 <usb_set_address>:
    1ba0:	2380      	movs	r3, #128	; 0x80
    1ba2:	425b      	negs	r3, r3
    1ba4:	4318      	orrs	r0, r3
    1ba6:	b2c0      	uxtb	r0, r0
    1ba8:	4b01      	ldr	r3, [pc, #4]	; (1bb0 <usb_set_address+0x10>)
    1baa:	7298      	strb	r0, [r3, #10]
    1bac:	4770      	bx	lr
    1bae:	46c0      	nop			; (mov r8, r8)
    1bb0:	41005000 	.word	0x41005000

00001bb4 <usb_enable_ep>:
    1bb4:	b530      	push	{r4, r5, lr}
    1bb6:	b243      	sxtb	r3, r0
    1bb8:	2b00      	cmp	r3, #0
    1bba:	db13      	blt.n	1be4 <usb_enable_ep+0x30>
    1bbc:	2a08      	cmp	r2, #8
    1bbe:	d94e      	bls.n	1c5e <usb_enable_ep+0xaa>
    1bc0:	2a10      	cmp	r2, #16
    1bc2:	d969      	bls.n	1c98 <usb_enable_ep+0xe4>
    1bc4:	2a20      	cmp	r2, #32
    1bc6:	d969      	bls.n	1c9c <usb_enable_ep+0xe8>
    1bc8:	2a40      	cmp	r2, #64	; 0x40
    1bca:	d969      	bls.n	1ca0 <usb_enable_ep+0xec>
    1bcc:	2a80      	cmp	r2, #128	; 0x80
    1bce:	d969      	bls.n	1ca4 <usb_enable_ep+0xf0>
    1bd0:	2380      	movs	r3, #128	; 0x80
    1bd2:	005b      	lsls	r3, r3, #1
    1bd4:	429a      	cmp	r2, r3
    1bd6:	d967      	bls.n	1ca8 <usb_enable_ep+0xf4>
    1bd8:	3301      	adds	r3, #1
    1bda:	33ff      	adds	r3, #255	; 0xff
    1bdc:	429a      	cmp	r2, r3
    1bde:	d865      	bhi.n	1cac <usb_enable_ep+0xf8>
    1be0:	2206      	movs	r2, #6
    1be2:	e03d      	b.n	1c60 <usb_enable_ep+0xac>
    1be4:	2a08      	cmp	r2, #8
    1be6:	d911      	bls.n	1c0c <usb_enable_ep+0x58>
    1be8:	2a10      	cmp	r2, #16
    1bea:	d92c      	bls.n	1c46 <usb_enable_ep+0x92>
    1bec:	2a20      	cmp	r2, #32
    1bee:	d92c      	bls.n	1c4a <usb_enable_ep+0x96>
    1bf0:	2a40      	cmp	r2, #64	; 0x40
    1bf2:	d92c      	bls.n	1c4e <usb_enable_ep+0x9a>
    1bf4:	2a80      	cmp	r2, #128	; 0x80
    1bf6:	d92c      	bls.n	1c52 <usb_enable_ep+0x9e>
    1bf8:	2380      	movs	r3, #128	; 0x80
    1bfa:	005b      	lsls	r3, r3, #1
    1bfc:	429a      	cmp	r2, r3
    1bfe:	d92a      	bls.n	1c56 <usb_enable_ep+0xa2>
    1c00:	3301      	adds	r3, #1
    1c02:	33ff      	adds	r3, #255	; 0xff
    1c04:	429a      	cmp	r2, r3
    1c06:	d828      	bhi.n	1c5a <usb_enable_ep+0xa6>
    1c08:	2206      	movs	r2, #6
    1c0a:	e000      	b.n	1c0e <usb_enable_ep+0x5a>
    1c0c:	2200      	movs	r2, #0
    1c0e:	233f      	movs	r3, #63	; 0x3f
    1c10:	4018      	ands	r0, r3
    1c12:	0144      	lsls	r4, r0, #5
    1c14:	4b26      	ldr	r3, [pc, #152]	; (1cb0 <usb_enable_ep+0xfc>)
    1c16:	191b      	adds	r3, r3, r4
    1c18:	695c      	ldr	r4, [r3, #20]
    1c1a:	0712      	lsls	r2, r2, #28
    1c1c:	4d25      	ldr	r5, [pc, #148]	; (1cb4 <usb_enable_ep+0x100>)
    1c1e:	402c      	ands	r4, r5
    1c20:	4322      	orrs	r2, r4
    1c22:	615a      	str	r2, [r3, #20]
    1c24:	1c4c      	adds	r4, r1, #1
    1c26:	4a24      	ldr	r2, [pc, #144]	; (1cb8 <usb_enable_ep+0x104>)
    1c28:	3008      	adds	r0, #8
    1c2a:	0140      	lsls	r0, r0, #5
    1c2c:	5c81      	ldrb	r1, [r0, r2]
    1c2e:	2307      	movs	r3, #7
    1c30:	4023      	ands	r3, r4
    1c32:	011b      	lsls	r3, r3, #4
    1c34:	2470      	movs	r4, #112	; 0x70
    1c36:	43a1      	bics	r1, r4
    1c38:	4319      	orrs	r1, r3
    1c3a:	5481      	strb	r1, [r0, r2]
    1c3c:	4694      	mov	ip, r2
    1c3e:	4460      	add	r0, ip
    1c40:	23a2      	movs	r3, #162	; 0xa2
    1c42:	7103      	strb	r3, [r0, #4]
    1c44:	e027      	b.n	1c96 <usb_enable_ep+0xe2>
    1c46:	2201      	movs	r2, #1
    1c48:	e7e1      	b.n	1c0e <usb_enable_ep+0x5a>
    1c4a:	2202      	movs	r2, #2
    1c4c:	e7df      	b.n	1c0e <usb_enable_ep+0x5a>
    1c4e:	2203      	movs	r2, #3
    1c50:	e7dd      	b.n	1c0e <usb_enable_ep+0x5a>
    1c52:	2204      	movs	r2, #4
    1c54:	e7db      	b.n	1c0e <usb_enable_ep+0x5a>
    1c56:	2205      	movs	r2, #5
    1c58:	e7d9      	b.n	1c0e <usb_enable_ep+0x5a>
    1c5a:	2207      	movs	r2, #7
    1c5c:	e7d7      	b.n	1c0e <usb_enable_ep+0x5a>
    1c5e:	2200      	movs	r2, #0
    1c60:	233f      	movs	r3, #63	; 0x3f
    1c62:	4018      	ands	r0, r3
    1c64:	0143      	lsls	r3, r0, #5
    1c66:	4c12      	ldr	r4, [pc, #72]	; (1cb0 <usb_enable_ep+0xfc>)
    1c68:	18e4      	adds	r4, r4, r3
    1c6a:	6865      	ldr	r5, [r4, #4]
    1c6c:	0713      	lsls	r3, r2, #28
    1c6e:	4a11      	ldr	r2, [pc, #68]	; (1cb4 <usb_enable_ep+0x100>)
    1c70:	4015      	ands	r5, r2
    1c72:	432b      	orrs	r3, r5
    1c74:	6063      	str	r3, [r4, #4]
    1c76:	1c4b      	adds	r3, r1, #1
    1c78:	4c0f      	ldr	r4, [pc, #60]	; (1cb8 <usb_enable_ep+0x104>)
    1c7a:	3008      	adds	r0, #8
    1c7c:	0140      	lsls	r0, r0, #5
    1c7e:	5d01      	ldrb	r1, [r0, r4]
    1c80:	2207      	movs	r2, #7
    1c82:	4013      	ands	r3, r2
    1c84:	4391      	bics	r1, r2
    1c86:	4319      	orrs	r1, r3
    1c88:	5501      	strb	r1, [r0, r4]
    1c8a:	46a4      	mov	ip, r4
    1c8c:	4460      	add	r0, ip
    1c8e:	2340      	movs	r3, #64	; 0x40
    1c90:	7143      	strb	r3, [r0, #5]
    1c92:	3b2f      	subs	r3, #47	; 0x2f
    1c94:	7103      	strb	r3, [r0, #4]
    1c96:	bd30      	pop	{r4, r5, pc}
    1c98:	2201      	movs	r2, #1
    1c9a:	e7e1      	b.n	1c60 <usb_enable_ep+0xac>
    1c9c:	2202      	movs	r2, #2
    1c9e:	e7df      	b.n	1c60 <usb_enable_ep+0xac>
    1ca0:	2203      	movs	r2, #3
    1ca2:	e7dd      	b.n	1c60 <usb_enable_ep+0xac>
    1ca4:	2204      	movs	r2, #4
    1ca6:	e7db      	b.n	1c60 <usb_enable_ep+0xac>
    1ca8:	2205      	movs	r2, #5
    1caa:	e7d9      	b.n	1c60 <usb_enable_ep+0xac>
    1cac:	2207      	movs	r2, #7
    1cae:	e7d7      	b.n	1c60 <usb_enable_ep+0xac>
    1cb0:	20000214 	.word	0x20000214
    1cb4:	8fffffff 	.word	0x8fffffff
    1cb8:	41005000 	.word	0x41005000

00001cbc <usb_ep_start_out>:
    1cbc:	b5f0      	push	{r4, r5, r6, r7, lr}
    1cbe:	4e0f      	ldr	r6, [pc, #60]	; (1cfc <usb_ep_start_out+0x40>)
    1cc0:	0143      	lsls	r3, r0, #5
    1cc2:	18f4      	adds	r4, r6, r3
    1cc4:	6865      	ldr	r5, [r4, #4]
    1cc6:	0492      	lsls	r2, r2, #18
    1cc8:	0912      	lsrs	r2, r2, #4
    1cca:	4f0d      	ldr	r7, [pc, #52]	; (1d00 <usb_ep_start_out+0x44>)
    1ccc:	403d      	ands	r5, r7
    1cce:	432a      	orrs	r2, r5
    1cd0:	6062      	str	r2, [r4, #4]
    1cd2:	6862      	ldr	r2, [r4, #4]
    1cd4:	0b92      	lsrs	r2, r2, #14
    1cd6:	0395      	lsls	r5, r2, #14
    1cd8:	6065      	str	r5, [r4, #4]
    1cda:	5199      	str	r1, [r3, r6]
    1cdc:	3008      	adds	r0, #8
    1cde:	0140      	lsls	r0, r0, #5
    1ce0:	4a08      	ldr	r2, [pc, #32]	; (1d04 <usb_ep_start_out+0x48>)
    1ce2:	4694      	mov	ip, r2
    1ce4:	4460      	add	r0, ip
    1ce6:	2205      	movs	r2, #5
    1ce8:	71c2      	strb	r2, [r0, #7]
    1cea:	4a07      	ldr	r2, [pc, #28]	; (1d08 <usb_ep_start_out+0x4c>)
    1cec:	4694      	mov	ip, r2
    1cee:	4463      	add	r3, ip
    1cf0:	2201      	movs	r2, #1
    1cf2:	701a      	strb	r2, [r3, #0]
    1cf4:	2340      	movs	r3, #64	; 0x40
    1cf6:	7103      	strb	r3, [r0, #4]
    1cf8:	2000      	movs	r0, #0
    1cfa:	bdf0      	pop	{r4, r5, r6, r7, pc}
    1cfc:	20000214 	.word	0x20000214
    1d00:	f0003fff 	.word	0xf0003fff
    1d04:	41005000 	.word	0x41005000
    1d08:	41005109 	.word	0x41005109

00001d0c <usb_ep_start_in>:
    1d0c:	b5f0      	push	{r4, r5, r6, r7, lr}
    1d0e:	243f      	movs	r4, #63	; 0x3f
    1d10:	4020      	ands	r0, r4
    1d12:	0145      	lsls	r5, r0, #5
    1d14:	4e11      	ldr	r6, [pc, #68]	; (1d5c <usb_ep_start_in+0x50>)
    1d16:	1976      	adds	r6, r6, r5
    1d18:	6977      	ldr	r7, [r6, #20]
    1d1a:	07db      	lsls	r3, r3, #31
    1d1c:	007f      	lsls	r7, r7, #1
    1d1e:	087f      	lsrs	r7, r7, #1
    1d20:	433b      	orrs	r3, r7
    1d22:	6173      	str	r3, [r6, #20]
    1d24:	6977      	ldr	r7, [r6, #20]
    1d26:	4b0e      	ldr	r3, [pc, #56]	; (1d60 <usb_ep_start_in+0x54>)
    1d28:	403b      	ands	r3, r7
    1d2a:	6173      	str	r3, [r6, #20]
    1d2c:	6973      	ldr	r3, [r6, #20]
    1d2e:	0492      	lsls	r2, r2, #18
    1d30:	0c92      	lsrs	r2, r2, #18
    1d32:	0b9b      	lsrs	r3, r3, #14
    1d34:	039b      	lsls	r3, r3, #14
    1d36:	431a      	orrs	r2, r3
    1d38:	6172      	str	r2, [r6, #20]
    1d3a:	6131      	str	r1, [r6, #16]
    1d3c:	3008      	adds	r0, #8
    1d3e:	0140      	lsls	r0, r0, #5
    1d40:	4b08      	ldr	r3, [pc, #32]	; (1d64 <usb_ep_start_in+0x58>)
    1d42:	469c      	mov	ip, r3
    1d44:	4460      	add	r0, ip
    1d46:	230a      	movs	r3, #10
    1d48:	71c3      	strb	r3, [r0, #7]
    1d4a:	4b07      	ldr	r3, [pc, #28]	; (1d68 <usb_ep_start_in+0x5c>)
    1d4c:	469c      	mov	ip, r3
    1d4e:	4465      	add	r5, ip
    1d50:	2302      	movs	r3, #2
    1d52:	702b      	strb	r3, [r5, #0]
    1d54:	337e      	adds	r3, #126	; 0x7e
    1d56:	7143      	strb	r3, [r0, #5]
    1d58:	2000      	movs	r0, #0
    1d5a:	bdf0      	pop	{r4, r5, r6, r7, pc}
    1d5c:	20000214 	.word	0x20000214
    1d60:	f0003fff 	.word	0xf0003fff
    1d64:	41005000 	.word	0x41005000
    1d68:	41005109 	.word	0x41005109

00001d6c <usb_ep_pending>:
    1d6c:	b243      	sxtb	r3, r0
    1d6e:	2b00      	cmp	r3, #0
    1d70:	db0a      	blt.n	1d88 <usb_ep_pending+0x1c>
    1d72:	233f      	movs	r3, #63	; 0x3f
    1d74:	4003      	ands	r3, r0
    1d76:	3308      	adds	r3, #8
    1d78:	015b      	lsls	r3, r3, #5
    1d7a:	4a09      	ldr	r2, [pc, #36]	; (1da0 <usb_ep_pending+0x34>)
    1d7c:	4694      	mov	ip, r2
    1d7e:	4463      	add	r3, ip
    1d80:	79d8      	ldrb	r0, [r3, #7]
    1d82:	07c0      	lsls	r0, r0, #31
    1d84:	0fc0      	lsrs	r0, r0, #31
    1d86:	4770      	bx	lr
    1d88:	223f      	movs	r2, #63	; 0x3f
    1d8a:	4002      	ands	r2, r0
    1d8c:	3208      	adds	r2, #8
    1d8e:	0152      	lsls	r2, r2, #5
    1d90:	4b03      	ldr	r3, [pc, #12]	; (1da0 <usb_ep_pending+0x34>)
    1d92:	469c      	mov	ip, r3
    1d94:	4462      	add	r2, ip
    1d96:	79d0      	ldrb	r0, [r2, #7]
    1d98:	0780      	lsls	r0, r0, #30
    1d9a:	0fc0      	lsrs	r0, r0, #31
    1d9c:	e7f3      	b.n	1d86 <usb_ep_pending+0x1a>
    1d9e:	46c0      	nop			; (mov r8, r8)
    1da0:	41005000 	.word	0x41005000

00001da4 <usb_ep_handled>:
    1da4:	b243      	sxtb	r3, r0
    1da6:	2b00      	cmp	r3, #0
    1da8:	db09      	blt.n	1dbe <usb_ep_handled+0x1a>
    1daa:	233f      	movs	r3, #63	; 0x3f
    1dac:	4003      	ands	r3, r0
    1dae:	3308      	adds	r3, #8
    1db0:	015b      	lsls	r3, r3, #5
    1db2:	4a08      	ldr	r2, [pc, #32]	; (1dd4 <usb_ep_handled+0x30>)
    1db4:	4694      	mov	ip, r2
    1db6:	4463      	add	r3, ip
    1db8:	2201      	movs	r2, #1
    1dba:	71da      	strb	r2, [r3, #7]
    1dbc:	4770      	bx	lr
    1dbe:	223f      	movs	r2, #63	; 0x3f
    1dc0:	4002      	ands	r2, r0
    1dc2:	3208      	adds	r2, #8
    1dc4:	0152      	lsls	r2, r2, #5
    1dc6:	4b03      	ldr	r3, [pc, #12]	; (1dd4 <usb_ep_handled+0x30>)
    1dc8:	469c      	mov	ip, r3
    1dca:	4462      	add	r2, ip
    1dcc:	2302      	movs	r3, #2
    1dce:	71d3      	strb	r3, [r2, #7]
    1dd0:	e7f4      	b.n	1dbc <usb_ep_handled+0x18>
    1dd2:	46c0      	nop			; (mov r8, r8)
    1dd4:	41005000 	.word	0x41005000

00001dd8 <usb_attach>:
    1dd8:	4a08      	ldr	r2, [pc, #32]	; (1dfc <usb_attach+0x24>)
    1dda:	2380      	movs	r3, #128	; 0x80
    1ddc:	6013      	str	r3, [r2, #0]
    1dde:	4908      	ldr	r1, [pc, #32]	; (1e00 <usb_attach+0x28>)
    1de0:	890b      	ldrh	r3, [r1, #8]
    1de2:	2001      	movs	r0, #1
    1de4:	4383      	bics	r3, r0
    1de6:	810b      	strh	r3, [r1, #8]
    1de8:	20c1      	movs	r0, #193	; 0xc1
    1dea:	0080      	lsls	r0, r0, #2
    1dec:	5813      	ldr	r3, [r2, r0]
    1dee:	021b      	lsls	r3, r3, #8
    1df0:	0a1b      	lsrs	r3, r3, #8
    1df2:	21c0      	movs	r1, #192	; 0xc0
    1df4:	0609      	lsls	r1, r1, #24
    1df6:	430b      	orrs	r3, r1
    1df8:	5013      	str	r3, [r2, r0]
    1dfa:	4770      	bx	lr
    1dfc:	e000e100 	.word	0xe000e100
    1e00:	41005000 	.word	0x41005000

00001e04 <usb_ep0_out>:
    1e04:	4b0d      	ldr	r3, [pc, #52]	; (1e3c <usb_ep0_out+0x38>)
    1e06:	6859      	ldr	r1, [r3, #4]
    1e08:	4a0d      	ldr	r2, [pc, #52]	; (1e40 <usb_ep0_out+0x3c>)
    1e0a:	4011      	ands	r1, r2
    1e0c:	2280      	movs	r2, #128	; 0x80
    1e0e:	0352      	lsls	r2, r2, #13
    1e10:	430a      	orrs	r2, r1
    1e12:	605a      	str	r2, [r3, #4]
    1e14:	685a      	ldr	r2, [r3, #4]
    1e16:	0b92      	lsrs	r2, r2, #14
    1e18:	0391      	lsls	r1, r2, #14
    1e1a:	6059      	str	r1, [r3, #4]
    1e1c:	4a09      	ldr	r2, [pc, #36]	; (1e44 <usb_ep0_out+0x40>)
    1e1e:	601a      	str	r2, [r3, #0]
    1e20:	4b09      	ldr	r3, [pc, #36]	; (1e48 <usb_ep0_out+0x44>)
    1e22:	2208      	movs	r2, #8
    1e24:	32ff      	adds	r2, #255	; 0xff
    1e26:	2105      	movs	r1, #5
    1e28:	5499      	strb	r1, [r3, r2]
    1e2a:	220a      	movs	r2, #10
    1e2c:	32ff      	adds	r2, #255	; 0xff
    1e2e:	3904      	subs	r1, #4
    1e30:	5499      	strb	r1, [r3, r2]
    1e32:	3a05      	subs	r2, #5
    1e34:	313f      	adds	r1, #63	; 0x3f
    1e36:	5499      	strb	r1, [r3, r2]
    1e38:	4770      	bx	lr
    1e3a:	46c0      	nop			; (mov r8, r8)
    1e3c:	20000214 	.word	0x20000214
    1e40:	f0003fff 	.word	0xf0003fff
    1e44:	20000404 	.word	0x20000404
    1e48:	41005000 	.word	0x41005000

00001e4c <usb_ep0_in>:
    1e4c:	4b0f      	ldr	r3, [pc, #60]	; (1e8c <usb_ep0_in+0x40>)
    1e4e:	6959      	ldr	r1, [r3, #20]
    1e50:	2280      	movs	r2, #128	; 0x80
    1e52:	0612      	lsls	r2, r2, #24
    1e54:	430a      	orrs	r2, r1
    1e56:	615a      	str	r2, [r3, #20]
    1e58:	6959      	ldr	r1, [r3, #20]
    1e5a:	4a0d      	ldr	r2, [pc, #52]	; (1e90 <usb_ep0_in+0x44>)
    1e5c:	400a      	ands	r2, r1
    1e5e:	615a      	str	r2, [r3, #20]
    1e60:	695a      	ldr	r2, [r3, #20]
    1e62:	0b92      	lsrs	r2, r2, #14
    1e64:	0392      	lsls	r2, r2, #14
    1e66:	4310      	orrs	r0, r2
    1e68:	6158      	str	r0, [r3, #20]
    1e6a:	4a0a      	ldr	r2, [pc, #40]	; (1e94 <usb_ep0_in+0x48>)
    1e6c:	611a      	str	r2, [r3, #16]
    1e6e:	4b0a      	ldr	r3, [pc, #40]	; (1e98 <usb_ep0_in+0x4c>)
    1e70:	2208      	movs	r2, #8
    1e72:	32ff      	adds	r2, #255	; 0xff
    1e74:	210a      	movs	r1, #10
    1e76:	5499      	strb	r1, [r3, r2]
    1e78:	220a      	movs	r2, #10
    1e7a:	32ff      	adds	r2, #255	; 0xff
    1e7c:	3908      	subs	r1, #8
    1e7e:	5499      	strb	r1, [r3, r2]
    1e80:	2206      	movs	r2, #6
    1e82:	32ff      	adds	r2, #255	; 0xff
    1e84:	317e      	adds	r1, #126	; 0x7e
    1e86:	5499      	strb	r1, [r3, r2]
    1e88:	4770      	bx	lr
    1e8a:	46c0      	nop			; (mov r8, r8)
    1e8c:	20000214 	.word	0x20000214
    1e90:	f0003fff 	.word	0xf0003fff
    1e94:	200003b4 	.word	0x200003b4
    1e98:	41005000 	.word	0x41005000

00001e9c <usb_ep0_stall>:
    1e9c:	4a02      	ldr	r2, [pc, #8]	; (1ea8 <usb_ep0_stall+0xc>)
    1e9e:	2306      	movs	r3, #6
    1ea0:	33ff      	adds	r3, #255	; 0xff
    1ea2:	2130      	movs	r1, #48	; 0x30
    1ea4:	54d1      	strb	r1, [r2, r3]
    1ea6:	4770      	bx	lr
    1ea8:	41005000 	.word	0x41005000

00001eac <USB_Handler>:
    1eac:	b570      	push	{r4, r5, r6, lr}
    1eae:	4a24      	ldr	r2, [pc, #144]	; (1f40 <USB_Handler+0x94>)
    1eb0:	8c13      	ldrh	r3, [r2, #32]
    1eb2:	b29b      	uxth	r3, r3
    1eb4:	001c      	movs	r4, r3
    1eb6:	8b92      	ldrh	r2, [r2, #28]
    1eb8:	0712      	lsls	r2, r2, #28
    1eba:	d410      	bmi.n	1ede <USB_Handler+0x32>
    1ebc:	07db      	lsls	r3, r3, #31
    1ebe:	d50c      	bpl.n	1eda <USB_Handler+0x2e>
    1ec0:	4a1f      	ldr	r2, [pc, #124]	; (1f40 <USB_Handler+0x94>)
    1ec2:	2308      	movs	r3, #8
    1ec4:	33ff      	adds	r3, #255	; 0xff
    1ec6:	5cd5      	ldrb	r5, [r2, r3]
    1ec8:	b2ed      	uxtb	r5, r5
    1eca:	2113      	movs	r1, #19
    1ecc:	54d1      	strb	r1, [r2, r3]
    1ece:	06eb      	lsls	r3, r5, #27
    1ed0:	d40d      	bmi.n	1eee <USB_Handler+0x42>
    1ed2:	07eb      	lsls	r3, r5, #31
    1ed4:	d413      	bmi.n	1efe <USB_Handler+0x52>
    1ed6:	07ab      	lsls	r3, r5, #30
    1ed8:	d414      	bmi.n	1f04 <USB_Handler+0x58>
    1eda:	2301      	movs	r3, #1
    1edc:	e016      	b.n	1f0c <USB_Handler+0x60>
    1ede:	4b18      	ldr	r3, [pc, #96]	; (1f40 <USB_Handler+0x94>)
    1ee0:	2208      	movs	r2, #8
    1ee2:	839a      	strh	r2, [r3, #28]
    1ee4:	4b17      	ldr	r3, [pc, #92]	; (1f44 <USB_Handler+0x98>)
    1ee6:	4798      	blx	r3
    1ee8:	4b17      	ldr	r3, [pc, #92]	; (1f48 <USB_Handler+0x9c>)
    1eea:	4798      	blx	r3
    1eec:	e026      	b.n	1f3c <USB_Handler+0x90>
    1eee:	2208      	movs	r2, #8
    1ef0:	4916      	ldr	r1, [pc, #88]	; (1f4c <USB_Handler+0xa0>)
    1ef2:	4817      	ldr	r0, [pc, #92]	; (1f50 <USB_Handler+0xa4>)
    1ef4:	4b17      	ldr	r3, [pc, #92]	; (1f54 <USB_Handler+0xa8>)
    1ef6:	4798      	blx	r3
    1ef8:	4b17      	ldr	r3, [pc, #92]	; (1f58 <USB_Handler+0xac>)
    1efa:	4798      	blx	r3
    1efc:	e7e9      	b.n	1ed2 <USB_Handler+0x26>
    1efe:	4b17      	ldr	r3, [pc, #92]	; (1f5c <USB_Handler+0xb0>)
    1f00:	4798      	blx	r3
    1f02:	e7e8      	b.n	1ed6 <USB_Handler+0x2a>
    1f04:	4b16      	ldr	r3, [pc, #88]	; (1f60 <USB_Handler+0xb4>)
    1f06:	4798      	blx	r3
    1f08:	e7e7      	b.n	1eda <USB_Handler+0x2e>
    1f0a:	3301      	adds	r3, #1
    1f0c:	4a15      	ldr	r2, [pc, #84]	; (1f64 <USB_Handler+0xb8>)
    1f0e:	7812      	ldrb	r2, [r2, #0]
    1f10:	429a      	cmp	r2, r3
    1f12:	dd11      	ble.n	1f38 <USB_Handler+0x8c>
    1f14:	2201      	movs	r2, #1
    1f16:	409a      	lsls	r2, r3
    1f18:	4214      	tst	r4, r2
    1f1a:	d0f6      	beq.n	1f0a <USB_Handler+0x5e>
    1f1c:	001a      	movs	r2, r3
    1f1e:	3208      	adds	r2, #8
    1f20:	0152      	lsls	r2, r2, #5
    1f22:	4907      	ldr	r1, [pc, #28]	; (1f40 <USB_Handler+0x94>)
    1f24:	468c      	mov	ip, r1
    1f26:	4462      	add	r2, ip
    1f28:	79d1      	ldrb	r1, [r2, #7]
    1f2a:	b2c9      	uxtb	r1, r1
    1f2c:	015a      	lsls	r2, r3, #5
    1f2e:	480e      	ldr	r0, [pc, #56]	; (1f68 <USB_Handler+0xbc>)
    1f30:	4684      	mov	ip, r0
    1f32:	4462      	add	r2, ip
    1f34:	7011      	strb	r1, [r2, #0]
    1f36:	e7e8      	b.n	1f0a <USB_Handler+0x5e>
    1f38:	4b0c      	ldr	r3, [pc, #48]	; (1f6c <USB_Handler+0xc0>)
    1f3a:	4798      	blx	r3
    1f3c:	bd70      	pop	{r4, r5, r6, pc}
    1f3e:	46c0      	nop			; (mov r8, r8)
    1f40:	41005000 	.word	0x41005000
    1f44:	00001a85 	.word	0x00001a85
    1f48:	000013b1 	.word	0x000013b1
    1f4c:	20000404 	.word	0x20000404
    1f50:	200003fc 	.word	0x200003fc
    1f54:	000020ed 	.word	0x000020ed
    1f58:	00001775 	.word	0x00001775
    1f5c:	00001685 	.word	0x00001685
    1f60:	000016a1 	.word	0x000016a1
    1f64:	000022bd 	.word	0x000022bd
    1f68:	41005108 	.word	0x41005108
    1f6c:	000014c9 	.word	0x000014c9

00001f70 <samd_serial_number_string_descriptor>:
    1f70:	b530      	push	{r4, r5, lr}
    1f72:	b089      	sub	sp, #36	; 0x24
    1f74:	2400      	movs	r4, #0
    1f76:	e01c      	b.n	1fb2 <samd_serial_number_string_descriptor+0x42>
    1f78:	00a1      	lsls	r1, r4, #2
    1f7a:	1909      	adds	r1, r1, r4
    1f7c:	17cd      	asrs	r5, r1, #31
    1f7e:	2207      	movs	r2, #7
    1f80:	0010      	movs	r0, r2
    1f82:	4028      	ands	r0, r5
    1f84:	1840      	adds	r0, r0, r1
    1f86:	10c0      	asrs	r0, r0, #3
    1f88:	0f6d      	lsrs	r5, r5, #29
    1f8a:	194b      	adds	r3, r1, r5
    1f8c:	4013      	ands	r3, r2
    1f8e:	1b5b      	subs	r3, r3, r5
    1f90:	4a0c      	ldr	r2, [pc, #48]	; (1fc4 <samd_serial_number_string_descriptor+0x54>)
    1f92:	5c82      	ldrb	r2, [r0, r2]
    1f94:	411a      	asrs	r2, r3
    1f96:	490c      	ldr	r1, [pc, #48]	; (1fc8 <samd_serial_number_string_descriptor+0x58>)
    1f98:	5c41      	ldrb	r1, [r0, r1]
    1f9a:	2008      	movs	r0, #8
    1f9c:	1ac3      	subs	r3, r0, r3
    1f9e:	4099      	lsls	r1, r3
    1fa0:	000b      	movs	r3, r1
    1fa2:	4313      	orrs	r3, r2
    1fa4:	221f      	movs	r2, #31
    1fa6:	4013      	ands	r3, r2
    1fa8:	4a08      	ldr	r2, [pc, #32]	; (1fcc <samd_serial_number_string_descriptor+0x5c>)
    1faa:	5cd2      	ldrb	r2, [r2, r3]
    1fac:	ab01      	add	r3, sp, #4
    1fae:	551a      	strb	r2, [r3, r4]
    1fb0:	3401      	adds	r4, #1
    1fb2:	2c19      	cmp	r4, #25
    1fb4:	dde0      	ble.n	1f78 <samd_serial_number_string_descriptor+0x8>
    1fb6:	a801      	add	r0, sp, #4
    1fb8:	2300      	movs	r3, #0
    1fba:	7683      	strb	r3, [r0, #26]
    1fbc:	4b04      	ldr	r3, [pc, #16]	; (1fd0 <samd_serial_number_string_descriptor+0x60>)
    1fbe:	4798      	blx	r3
    1fc0:	b009      	add	sp, #36	; 0x24
    1fc2:	bd30      	pop	{r4, r5, pc}
    1fc4:	0080a00c 	.word	0x0080a00c
    1fc8:	0080a00d 	.word	0x0080a00d
    1fcc:	0000230c 	.word	0x0000230c
    1fd0:	00001a49 	.word	0x00001a49

00001fd4 <Dummy_Handler>:
    1fd4:	e7fe      	b.n	1fd4 <Dummy_Handler>
	...

00001fd8 <Reset_Handler>:
    1fd8:	b5f8      	push	{r3, r4, r5, r6, r7, lr}
    1fda:	4a21      	ldr	r2, [pc, #132]	; (2060 <Reset_Handler+0x88>)
    1fdc:	4b21      	ldr	r3, [pc, #132]	; (2064 <Reset_Handler+0x8c>)
    1fde:	429a      	cmp	r2, r3
    1fe0:	d007      	beq.n	1ff2 <Reset_Handler+0x1a>
    1fe2:	4b20      	ldr	r3, [pc, #128]	; (2064 <Reset_Handler+0x8c>)
    1fe4:	4a1e      	ldr	r2, [pc, #120]	; (2060 <Reset_Handler+0x88>)
    1fe6:	e001      	b.n	1fec <Reset_Handler+0x14>
    1fe8:	ca02      	ldmia	r2!, {r1}
    1fea:	c302      	stmia	r3!, {r1}
    1fec:	491e      	ldr	r1, [pc, #120]	; (2068 <Reset_Handler+0x90>)
    1fee:	428b      	cmp	r3, r1
    1ff0:	d3fa      	bcc.n	1fe8 <Reset_Handler+0x10>
    1ff2:	4b1e      	ldr	r3, [pc, #120]	; (206c <Reset_Handler+0x94>)
    1ff4:	e001      	b.n	1ffa <Reset_Handler+0x22>
    1ff6:	2200      	movs	r2, #0
    1ff8:	c304      	stmia	r3!, {r2}
    1ffa:	4a1d      	ldr	r2, [pc, #116]	; (2070 <Reset_Handler+0x98>)
    1ffc:	4293      	cmp	r3, r2
    1ffe:	d3fa      	bcc.n	1ff6 <Reset_Handler+0x1e>
    2000:	4b1c      	ldr	r3, [pc, #112]	; (2074 <Reset_Handler+0x9c>)
    2002:	22ff      	movs	r2, #255	; 0xff
    2004:	4393      	bics	r3, r2
    2006:	4a1c      	ldr	r2, [pc, #112]	; (2078 <Reset_Handler+0xa0>)
    2008:	6093      	str	r3, [r2, #8]
    200a:	4a1c      	ldr	r2, [pc, #112]	; (207c <Reset_Handler+0xa4>)
    200c:	2390      	movs	r3, #144	; 0x90
    200e:	005b      	lsls	r3, r3, #1
    2010:	2102      	movs	r1, #2
    2012:	50d1      	str	r1, [r2, r3]
    2014:	4a1a      	ldr	r2, [pc, #104]	; (2080 <Reset_Handler+0xa8>)
    2016:	78d3      	ldrb	r3, [r2, #3]
    2018:	2503      	movs	r5, #3
    201a:	43ab      	bics	r3, r5
    201c:	2402      	movs	r4, #2
    201e:	4323      	orrs	r3, r4
    2020:	70d3      	strb	r3, [r2, #3]
    2022:	78d3      	ldrb	r3, [r2, #3]
    2024:	270c      	movs	r7, #12
    2026:	43bb      	bics	r3, r7
    2028:	2608      	movs	r6, #8
    202a:	4333      	orrs	r3, r6
    202c:	70d3      	strb	r3, [r2, #3]
    202e:	4b15      	ldr	r3, [pc, #84]	; (2084 <Reset_Handler+0xac>)
    2030:	7b98      	ldrb	r0, [r3, #14]
    2032:	2230      	movs	r2, #48	; 0x30
    2034:	4390      	bics	r0, r2
    2036:	2220      	movs	r2, #32
    2038:	4310      	orrs	r0, r2
    203a:	7398      	strb	r0, [r3, #14]
    203c:	7b99      	ldrb	r1, [r3, #14]
    203e:	43b9      	bics	r1, r7
    2040:	4331      	orrs	r1, r6
    2042:	7399      	strb	r1, [r3, #14]
    2044:	7b9a      	ldrb	r2, [r3, #14]
    2046:	43aa      	bics	r2, r5
    2048:	4322      	orrs	r2, r4
    204a:	739a      	strb	r2, [r3, #14]
    204c:	4a0e      	ldr	r2, [pc, #56]	; (2088 <Reset_Handler+0xb0>)
    204e:	6851      	ldr	r1, [r2, #4]
    2050:	2380      	movs	r3, #128	; 0x80
    2052:	430b      	orrs	r3, r1
    2054:	6053      	str	r3, [r2, #4]
    2056:	4b0d      	ldr	r3, [pc, #52]	; (208c <Reset_Handler+0xb4>)
    2058:	4798      	blx	r3
    205a:	4b0d      	ldr	r3, [pc, #52]	; (2090 <Reset_Handler+0xb8>)
    205c:	4798      	blx	r3
    205e:	e7fe      	b.n	205e <Reset_Handler+0x86>
    2060:	00002350 	.word	0x00002350
    2064:	20000000 	.word	0x20000000
    2068:	2000006c 	.word	0x2000006c
    206c:	2000006c 	.word	0x2000006c
    2070:	20000444 	.word	0x20000444
    2074:	00000800 	.word	0x00000800
    2078:	e000ed00 	.word	0xe000ed00
    207c:	41007000 	.word	0x41007000
    2080:	41005000 	.word	0x41005000
    2084:	41004800 	.word	0x41004800
    2088:	41004000 	.word	0x41004000
    208c:	000020a5 	.word	0x000020a5
    2090:	00000dc1 	.word	0x00000dc1

00002094 <SystemInit>:
    2094:	4b01      	ldr	r3, [pc, #4]	; (209c <SystemInit+0x8>)
    2096:	4a02      	ldr	r2, [pc, #8]	; (20a0 <SystemInit+0xc>)
    2098:	601a      	str	r2, [r3, #0]
    209a:	4770      	bx	lr
    209c:	20000068 	.word	0x20000068
    20a0:	000f4240 	.word	0x000f4240

000020a4 <__libc_init_array>:
    20a4:	b570      	push	{r4, r5, r6, lr}
    20a6:	2600      	movs	r6, #0
    20a8:	4c0c      	ldr	r4, [pc, #48]	; (20dc <__libc_init_array+0x38>)
    20aa:	4d0d      	ldr	r5, [pc, #52]	; (20e0 <__libc_init_array+0x3c>)
    20ac:	1b64      	subs	r4, r4, r5
    20ae:	10a4      	asrs	r4, r4, #2
    20b0:	42a6      	cmp	r6, r4
    20b2:	d109      	bne.n	20c8 <__libc_init_array+0x24>
    20b4:	2600      	movs	r6, #0
    20b6:	f000 f93b 	bl	2330 <_init>
    20ba:	4c0a      	ldr	r4, [pc, #40]	; (20e4 <__libc_init_array+0x40>)
    20bc:	4d0a      	ldr	r5, [pc, #40]	; (20e8 <__libc_init_array+0x44>)
    20be:	1b64      	subs	r4, r4, r5
    20c0:	10a4      	asrs	r4, r4, #2
    20c2:	42a6      	cmp	r6, r4
    20c4:	d105      	bne.n	20d2 <__libc_init_array+0x2e>
    20c6:	bd70      	pop	{r4, r5, r6, pc}
    20c8:	00b3      	lsls	r3, r6, #2
    20ca:	58eb      	ldr	r3, [r5, r3]
    20cc:	4798      	blx	r3
    20ce:	3601      	adds	r6, #1
    20d0:	e7ee      	b.n	20b0 <__libc_init_array+0xc>
    20d2:	00b3      	lsls	r3, r6, #2
    20d4:	58eb      	ldr	r3, [r5, r3]
    20d6:	4798      	blx	r3
    20d8:	3601      	adds	r6, #1
    20da:	e7f2      	b.n	20c2 <__libc_init_array+0x1e>
    20dc:	0000233c 	.word	0x0000233c
    20e0:	0000233c 	.word	0x0000233c
    20e4:	00002340 	.word	0x00002340
    20e8:	0000233c 	.word	0x0000233c

000020ec <memcpy>:
    20ec:	2300      	movs	r3, #0
    20ee:	b510      	push	{r4, lr}
    20f0:	429a      	cmp	r2, r3
    20f2:	d100      	bne.n	20f6 <memcpy+0xa>
    20f4:	bd10      	pop	{r4, pc}
    20f6:	5ccc      	ldrb	r4, [r1, r3]
    20f8:	54c4      	strb	r4, [r0, r3]
    20fa:	3301      	adds	r3, #1
    20fc:	e7f8      	b.n	20f0 <memcpy+0x4>

000020fe <memset>:
    20fe:	0003      	movs	r3, r0
    2100:	1882      	adds	r2, r0, r2
    2102:	4293      	cmp	r3, r2
    2104:	d100      	bne.n	2108 <memset+0xa>
    2106:	4770      	bx	lr
    2108:	7019      	strb	r1, [r3, #0]
    210a:	3301      	adds	r3, #1
    210c:	e7f9      	b.n	2102 <memset+0x4>

0000210e <strlen>:
    210e:	2300      	movs	r3, #0
    2110:	5cc2      	ldrb	r2, [r0, r3]
    2112:	3301      	adds	r3, #1
    2114:	2a00      	cmp	r2, #0
    2116:	d1fb      	bne.n	2110 <strlen+0x2>
    2118:	1e58      	subs	r0, r3, #1
    211a:	4770      	bx	lr
    211c:	7277694b 	.word	0x7277694b
    2120:	73756f69 	.word	0x73756f69
    2124:	6d655420 	.word	0x6d655420
    2128:	61726570 	.word	0x61726570
    212c:	65727574 	.word	0x65727574
    2130:	6e655320 	.word	0x6e655320
    2134:	00726f73 	.word	0x00726f73
    2138:	bf7fbdf8 	.word	0xbf7fbdf8
    213c:	3e4e70ba 	.word	0x3e4e70ba
    2140:	c46e8cf9 	.word	0xc46e8cf9

00002144 <MSFTDescriptor>:
    2144:	0000000a 06030000 000800b2 00000001     ................
    2154:	000800a8 00020002 001400a0 49570003     ..............WI
    2164:	4253554e 00000000 00000000 00840000     NUSB............
    2174:	00070004 0044002a 00760065 00630069     ....*.D.e.v.i.c.
    2184:	00490065 0074006e 00720065 00610066     e.I.n.t.e.r.f.a.
    2194:	00650063 00550047 00440049 00000073     c.e.G.U.I.D.s...
    21a4:	007b0050 00350031 00460062 00300037     P.{.1.5.b.F.7.0.
    21b4:	00420032 0032002d 00390035 002d0038     2.B.-.2.5.9.8.-.
    21c4:	00360034 00330044 0038002d 00380037     4.6.D.3.-.8.7.8.
    21d4:	002d0045 00420043 00360045 00340035     E.-.C.B.E.6.5.4.
    21e4:	00430046 00420035 00360043 0000007d     F.C.5.B.C.6.}...
    21f4:	00000000 00001384 00001354 0000135e     ........T...^...
    2204:	0000136a 00001372                       j...r...

0000220c <language_string>:
    220c:	04090304                                ....

00002210 <device_descriptor>:
    2210:	02100112 400102ef ec1904d8 02010117     .......@........
    2220:	00000103                                ....

00002224 <configuration_descriptor>:
    2224:	00600209 80000103 000b08fa 00020202     ..`.............
    2234:	00040900 02020100 24050000 04011000     ...........$....
    2244:	05020224 01000624 03830507 09ff0008     $...$...........
    2254:	02000104 0000000a 02040507 07050040     ............@...
    2264:	40028405 0b080500 01fe0102 04090401     ...@............
    2274:	fe000002 09040101 00000d21 01000040     ........!...@...

00002284 <bos_descriptor>:
    2284:	00390f05 05101802 08b63800 a009a934     ..9......8..4...
    2294:	a0fd8b47 b6158876 13010065 05101c01     G...v...e.......
    22a4:	dd60df00 c74589d8 65d29c4c 8a649e9d     ..`...E.L..e..d.
    22b4:	0300009f 1200b206                        .........

000022bd <usb_num_endpoints>:
    22bd:	4b000003 69727769 0073756f 4b000000     ...Kiwrious....K
    22cd:	69727769 2073756f 00554644 94000000     iwrious DFU.....
    22dd:	a8000017 84000017 a8000018 84000017     ................
    22ed:	b4000018 c0000017 84000017 1e000018     ................
    22fd:	32000018 84000018 58000018 30000018     ...2.......X...0
    230d:	34333231 38373635 43424139 48474644     123456789ABCDFGH
    231d:	4d4c4b4a 5251504e 57565453 005a5958     JKLMNPQRSTVWXYZ.
    232d:	                                         ...

00002330 <_init>:
    2330:	b5f8      	push	{r3, r4, r5, r6, r7, lr}
    2332:	46c0      	nop			; (mov r8, r8)
    2334:	bcf8      	pop	{r3, r4, r5, r6, r7}
    2336:	bc08      	pop	{r3}
    2338:	469e      	mov	lr, r3
    233a:	4770      	bx	lr

0000233c <__frame_dummy_init_array_entry>:
    233c:	0901 0000                                   ....

00002340 <_fini>:
    2340:	b5f8      	push	{r3, r4, r5, r6, r7, lr}
    2342:	46c0      	nop			; (mov r8, r8)
    2344:	bcf8      	pop	{r3, r4, r5, r6, r7}
    2346:	bc08      	pop	{r3}
    2348:	469e      	mov	lr, r3
    234a:	4770      	bx	lr

0000234c <__do_global_dtors_aux_fini_array_entry>:
    234c:	08d5 0000                                   ....
